(dp0
S'15055C'
p1
I166
sS'1719A!'
p2
I166
sS'5558G'
p3
I162
sS'12400G'
p4
I166
sS'14812T'
p5
I165
sS'15409T'
p6
I166
sS'6587T'
p7
I166
sS'6260A!'
p8
I166
sS'9615C'
p9
I164
sS'8839A'
p10
I165
sS'14290C'
p11
I165
sS'11812G'
p12
I165
sS'9101G'
p13
I166
sS'960.XC'
p14
I162
sS'16213A!'
p15
I166
sS'11467G'
p16
I166
sS'473T'
p17
I166
sS'16266T!'
p18
I165
sS'16233G'
p19
I166
sS'6971C'
p20
I166
sS'6035G'
p21
I166
sS'6644T'
p22
I166
sS'14926G'
p23
I165
sS'14281T'
p24
I164
sS'6119T'
p25
I166
sS'6527G'
p26
I166
sS'14130T'
p27
I166
sS'11641G'
p28
I164
sS'3543T'
p29
I166
sS'58C'
p30
I166
sS'751G'
p31
I166
sS'11581T'
p32
I166
sS'12061T'
p33
I166
sS'14500G'
p34
I166
sS'9230C'
p35
I165
sS'11581A'
p36
I166
sS'9080G'
p37
I166
sS'10389C'
p38
I166
sS'9325C'
p39
I165
sS'13086T'
p40
I166
sS'8848C'
p41
I165
sS'3435T'
p42
I165
sS'281G'
p43
I165
sS'13111C'
p44
I165
sS'10394T'
p45
I166
sS'16293G!'
p46
I162
sS'8937C'
p47
I165
sS'7885C'
p48
I166
sS'15790T'
p49
I166
sS'3523G'
p50
I166
sS'8140T'
p51
I165
sS'14815T'
p52
I166
sS'2246G'
p53
I165
sS'11447A'
p54
I166
sS'11767T'
p55
I166
sS'14433T'
p56
I166
sS'15930A'
p57
I155
sS'6917A'
p58
I165
sS'15355A'
p59
I161
sS'11800G'
p60
I166
sS'4916G'
p61
I164
sS'481T'
p62
I166
sS'13461C'
p63
I166
sS'13434G'
p64
I161
sS'8011G'
p65
I166
sS'11623T'
p66
I165
sS'7981T'
p67
I166
sS'375T'
p68
I166
sS'2074d'
p69
I166
sS'8412C'
p70
I166
sS'16203G'
p71
I165
sS'6445T'
p72
I166
sS'204C'
p73
I138
sS'11317G'
p74
I166
sS'8389G'
p75
I163
sS'16303A'
p76
I166
sS'3644C'
p77
I163
sS'14979C'
p78
I165
sS'4679C'
p79
I165
sS'5213T'
p80
I165
sS'9079G'
p81
I166
sS'5264T'
p82
I166
sS'16302G'
p83
I165
sS'10C'
p84
I166
sS'9392T'
p85
I166
sS'6302G'
p86
I166
sS'15451T'
p87
I166
sS'10070T'
p88
I166
sS'4976G'
p89
I165
sS'3992T'
p90
I164
sS'5747G'
p91
I164
sS'13980A'
p92
I166
sS'10562G'
p93
I166
sS'15377G'
p94
I166
sS'8683G'
p95
I166
sS'16129A'
p96
I105
sS'16129C'
p97
I166
sS'9800C'
p98
I166
sS'15295T'
p99
I166
sS'226C'
p100
I165
sS'7412T'
p101
I166
sS'10101C'
p102
I165
sS'5111T'
p103
I165
sS'2248C'
p104
I166
sS'14296G'
p105
I166
sS'9332T'
p106
I166
sS'9053A'
p107
I161
sS'14491T'
p108
I166
sS'16225T'
p109
I165
sS'13948T'
p110
I166
sS'8020A'
p111
I158
sS'11725G'
p112
I166
sS'1738C'
p113
I166
sS'13620C'
p114
I165
sS'16185T'
p115
I157
sS'319C'
p116
I166
sS'12858T'
p117
I166
sS'12123T'
p118
I166
sS'5583T'
p119
I165
sS'5463T'
p120
I166
sS'10094T'
p121
I166
sS'4646C'
p122
I163
sS'1670T'
p123
I166
sS'12189C'
p124
I165
sS'11025C'
p125
I163
sS'10895G'
p126
I165
sS'3615G'
p127
I165
sS'16361A'
p128
I166
sS'5985A'
p129
I166
sS'7828G'
p130
I164
sS'4158G'
p131
I165
sS'16456A'
p132
I166
sS'8347G'
p133
I166
sS'15721C'
p134
I162
sS'14215C'
p135
I166
sS'11255C'
p136
I166
sS'199C'
p137
I134
sS'7844G'
p138
I165
sS'9977C'
p139
I165
sS'6320C'
p140
I166
sS'1462T'
p141
I166
sS'8467T'
p142
I165
sS'10771G'
p143
I166
sS'5351G'
p144
I166
sS'16147T'
p145
I160
sS'5821A'
p146
I162
sS'15204C'
p147
I164
sS'15625A'
p148
I166
sS'6314T'
p149
I166
sS'5128G'
p150
I166
sS'3321T'
p151
I166
sS'4841A'
p152
I166
sS'16147A'
p153
I166
sS'13708A'
p154
I134
sS'1462A'
p155
I159
sS'3497T'
p156
I166
sS'4814T'
p157
I165
sS'13899C'
p158
I165
sS'14798C'
p159
I163
sS'15625T'
p160
I166
sS'5442C'
p161
I161
sS'182T!'
p162
I161
sS'4123G'
p163
I166
sS'16210G'
p164
I166
sS'8405G'
p165
I166
sS'11377A'
p166
I161
sS'4212G'
p167
I166
sS'11893G'
p168
I162
sS'5495C'
p169
I165
sS'1692G'
p170
I165
sS'8379G'
p171
I166
sS'10262G'
p172
I165
sS'8387A'
p173
I163
sS'3421A'
p174
I163
sS'5360T'
p175
I166
sS'1041G'
p176
I166
sS'4856C'
p177
I163
sS'13819C'
p178
I165
sS'6311T'
p179
I166
sS'10208C'
p180
I166
sS'16274A'
p181
I141
sS'128T'
p182
I165
sS'1290T'
p183
I166
sS'2836T'
p184
I165
sS'10326A'
p185
I166
sS'10692T'
p186
I165
sS'12651A'
p187
I164
sS'68A'
p188
I166
sS'10813T'
p189
I166
sS'14894C'
p190
I166
sS'13659C'
p191
I166
sS'2836A'
p192
I166
sS'5836G'
p193
I163
sS'4769G'
p194
I165
sS'9449T'
p195
I163
sS'8674G'
p196
I166
sS'4508T'
p197
I166
sS'9530C'
p198
I165
sS'3169T'
p199
I166
sS'16292G'
p200
I166
sS'8618C'
p201
I164
sS'16292A'
p202
I166
sS'12363T'
p203
I166
sS'9833C'
p204
I165
sS'14319C'
p205
I166
sS'553T'
p206
I166
sS'13611G'
p207
I166
sS'16292T'
p208
I153
sS'16071T'
p209
I165
sS'11268T'
p210
I166
sS'14248T'
p211
I166
sS'14727C'
p212
I165
sS'12906T'
p213
I166
sS'3777C'
p214
I162
sS'5342T'
p215
I166
sS'13629G'
p216
I166
sS'549T'
p217
I166
sS'15725T'
p218
I166
sS'16264T!'
p219
I166
sS'8655T'
p220
I166
sS'334C'
p221
I165
sS'15770T'
p222
I166
sS'3420T'
p223
I166
sS'15638T'
p224
I166
sS'13323T'
p225
I166
sS'3768G'
p226
I166
sS'7052G'
p227
I166
sS'14687G'
p228
I162
sS'15781T'
p229
I165
sS'5910A'
p230
I166
sS'16067T'
p231
I164
sS'8080T'
p232
I166
sS'5437T'
p233
I166
sS'751T'
p234
I166
sS'11204C'
p235
I163
sS'3385G'
p236
I166
sS'7175C'
p237
I166
sS'55A'
p238
I166
sS'12370T'
p239
I166
sS'55C'
p240
I165
sS'9151G'
p241
I166
sS'1520C'
p242
I165
sS'15671G'
p243
I166
sS'7309C'
p244
I166
sS'16104T'
p245
I163
sS'15562G'
p246
I164
sS'8245G'
p247
I166
sS'14569A'
p248
I159
sS'15954G'
p249
I165
sS'6941C'
p250
I166
sS'15954C'
p251
I166
sS'5127G'
p252
I166
sS'7697A'
p253
I165
sS'7241G'
p254
I166
sS'7471T'
p255
I166
sS'15839T'
p256
I166
sS'8870C'
p257
I165
sS'7711C'
p258
I164
sS'1531T'
p259
I165
sS'8143C'
p260
I165
sS'8479G'
p261
I166
sS'11404G'
p262
I163
sS'15038G'
p263
I166
sS'12780G'
p264
I165
sS'10397G'
p265
I166
sS'15938T'
p266
I166
sS'7372C'
p267
I166
sS'13383T'
p268
I166
sS'7389C'
p269
I162
sS'769A'
p270
I162
sS'9221G'
p271
I166
sS'3593C'
p272
I165
sS'12303T'
p273
I166
sS'15672C'
p274
I165
sS'3523T'
p275
I166
sS'9120G'
p276
I163
sS'8598C'
p277
I164
sS'745G'
p278
I166
sS'9509C'
p279
I164
sS'14218C'
p280
I165
sS'4895G'
p281
I166
sS'16145A'
p282
I142
sS'8593G'
p283
I166
sS'5147A'
p284
I148
sS'13602C'
p285
I165
sS'2361A'
p286
I164
sS'8856C'
p287
I166
sS'4732G'
p288
I165
sS'8856A'
p289
I161
sS'15109C'
p290
I165
sS'7270C'
p291
I165
sS'13105G'
p292
I151
sS'16142T'
p293
I166
sS'11968T'
p294
I166
sS'13050G'
p295
I165
sS'4937C'
p296
I163
sS'7757A'
p297
I166
sS'8836G'
p298
I166
sS'12492T'
p299
I166
sS'2638C'
p300
I166
sS'15349T'
p301
I166
sS'8803T'
p302
I166
sS'12891T'
p303
I166
sS'15719C'
p304
I166
sS'6974G'
p305
I166
sS'6998T'
p306
I166
sS'14088C'
p307
I164
sS'6296A'
p308
I166
sS'16224C'
p309
I156
sS'15370T'
p310
I166
sS'15916C'
p311
I166
sS'3600T'
p312
I166
sS'513A!'
p313
I166
sS'8803G'
p314
I166
sS'9335T'
p315
I166
sS'14831A'
p316
I164
sS'597.1T'
p317
I166
sS'390T'
p318
I166
sS'6260A'
p319
I162
sS'8865A'
p320
I163
sS'3200A'
p321
I166
sS'15076G'
p322
I166
sS'3200C'
p323
I165
sS'462T'
p324
I165
sS'374G'
p325
I164
sS'1737G'
p326
I166
sS'6546T'
p327
I166
sS'15301A'
p328
I162
sS'15524G'
p329
I166
sS'16269C'
p330
I166
sS'6152C'
p331
I162
sS'6956C'
p332
I165
sS'15466A'
p333
I161
sS'15394C'
p334
I165
sS'16108T'
p335
I164
sS'10427A'
p336
I166
sS'2387C'
p337
I163
sS'678C'
p338
I166
sS'7759C'
p339
I166
sS'8838A'
p340
I164
sS'11788T'
p341
I166
sS'6083T'
p342
I166
sS'4612C'
p343
I166
sS'10115C'
p344
I165
sS'7307G'
p345
I166
sS'14280G'
p346
I165
sS'8910A'
p347
I166
sS'7775A'
p348
I164
sS'13065T'
p349
I166
sS'14133G'
p350
I161
sS'7400A'
p351
I166
sS'8080A'
p352
I166
sS'12512T'
p353
I166
sS'8814T'
p354
I166
sS'6386T'
p355
I166
sS'8973G'
p356
I166
sS'4386C'
p357
I164
sS'8407A'
p358
I166
sS'5752.1A'
p359
I166
sS'1222G'
p360
I166
sS'14106C'
p361
I166
sS'9067G'
p362
I166
sS'16319A'
p363
I132
sS'10289G'
p364
I163
sS'5441G'
p365
I165
sS'15380G'
p366
I166
sS'11611A'
p367
I165
sS'16124C!'
p368
I166
sS'5441T'
p369
I166
sS'10238C'
p370
I165
sS'15323A'
p371
I162
sS'13497G'
p372
I166
sS'13440T'
p373
I165
sS'13973T'
p374
I166
sS'16497G'
p375
I160
sS'9950C'
p376
I160
sS'5325T'
p377
I166
sS'14968C'
p378
I165
sS'93G!'
p379
I166
sS'1040C'
p380
I164
sS'8386T'
p381
I166
sS'13368A'
p382
I157
sS'4135C'
p383
I166
sS'9007G'
p384
I166
sS'4248C'
p385
I164
sS'13958C'
p386
I165
sS'595.1C'
p387
I166
sS'5302C'
p388
I164
sS'13437C'
p389
I162
sS'4233C'
p390
I166
sS'3630T'
p391
I166
sS'205A'
p392
I166
sS'13575T'
p393
I166
sS'7001G'
p394
I166
sS'6918T'
p395
I166
sS'11314G'
p396
I162
sS'453A'
p397
I166
sS'453C'
p398
I166
sS'15061G'
p399
I164
sS'11620G'
p400
I165
sS'8519A'
p401
I166
sS'16258G'
p402
I166
sS'15312C'
p403
I166
sS'9554A'
p404
I160
sS'6305A'
p405
I166
sS'4227G'
p406
I165
sS'9921A'
p407
I165
sS'9391T'
p408
I166
sS'146C!'
p409
I162
sS'4977C'
p410
I164
sS'953C'
p411
I166
sS'12297C'
p412
I166
sS'9578G'
p413
I166
sS'12454A'
p414
I166
sS'3399G'
p415
I166
sS'15724G'
p416
I166
sS'8360G'
p417
I166
sS'8448C'
p418
I166
sS'15511C'
p419
I163
sS'11065G!'
p420
I166
sS'13785T'
p421
I164
sS'15662G'
p422
I165
sS'4095T'
p423
I166
sS'6047G!'
p424
I166
sS'12215C'
p425
I165
sS'10478T'
p426
I166
sS'15748C'
p427
I166
sS'7849T'
p428
I164
sS'335G'
p429
I166
sS'16066G'
p430
I161
sS'13104G'
p431
I165
sS'2851G'
p432
I165
sS'16256G'
p433
I166
sS'8642G'
p434
I166
sS'14893G'
p435
I166
sS'12373G'
p436
I163
sS'13887G'
p437
I166
sS'12239T'
p438
I166
sS'10858C'
p439
I166
sS'10834T'
p440
I165
sS'5418C'
p441
I166
sS'5811G'
p442
I165
sS'14914G'
p443
I165
sS'1409d'
p444
I166
sS'16037G'
p445
I165
sS'11254C'
p446
I165
sS'8557A'
p447
I162
sS'11332T'
p448
I166
sS'14862T'
p449
I166
sS'13569C'
p450
I166
sS'16337T'
p451
I166
sS'15766G'
p452
I165
sS'11881T'
p453
I164
sS'292.1AT'
p454
I166
sS'13488C'
p455
I166
sS'13479T'
p456
I166
sS'1008G'
p457
I166
sS'9689G'
p458
I166
sS'196C'
p459
I165
sS'15106A'
p460
I162
sS'4586C'
p461
I166
sS'4017T'
p462
I165
sS'5788C'
p463
I166
sS'9006G'
p464
I166
sS'12280G'
p465
I165
sS'9010A'
p466
I166
sS'16260A'
p467
I166
sS'16357C'
p468
I151
sS'681C'
p469
I166
sS'7129G'
p470
I165
sS'16144A'
p471
I166
sS'13707A'
p472
I166
sS'15139C'
p473
I165
sS'5087C'
p474
I166
sS'9785T'
p475
I166
sS'7262G'
p476
I166
sS'13914A'
p477
I166
sS'3592A'
p478
I165
sS'8895A'
p479
I166
sS'3882A'
p480
I162
sS'41T'
p481
I165
sS'12732C'
p482
I165
sS'15115C'
p483
I163
sS'16113C'
p484
I166
sS'10370C'
p485
I166
sS'6374C'
p486
I165
sS'744G'
p487
I166
sS'291.1A'
p488
I165
sS'13692T'
p489
I166
sS'656C'
p490
I166
sS'13752A'
p491
I166
sS'15942C'
p492
I164
sS'10583G'
p493
I166
sS'9818T'
p494
I166
sS'4733C'
p495
I165
sS'310.1T'
p496
I166
sS'7621C'
p497
I165
sS'7271G'
p498
I165
sS'12738C'
p499
I166
sS'16399G'
p500
I152
sS'15652G'
p501
I166
sS'12738G'
p502
I166
sS'8855T'
p503
I166
sS'14464G'
p504
I166
sS'13661G'
p505
I166
sS'15628G'
p506
I166
sS'13191C'
p507
I166
sS'10314T'
p508
I165
sS'5024T'
p509
I166
sS'2835T'
p510
I165
sS'5093C'
p511
I164
sS'9495C'
p512
I166
sS'6852A'
p513
I166
sS'16173T'
p514
I164
sS'12973T'
p515
I166
sS'14350T'
p516
I166
sS'2911T'
p517
I166
sS'109d'
p518
I164
sS'4079G'
p519
I166
sS'16162G'
p520
I164
sS'114T'
p521
I162
sS'10810C'
p522
I163
sS'16293G'
p523
I158
sS'64T!'
p524
I166
sS'56G'
p525
I166
sS'16293C'
p526
I162
sS'2760G'
p527
I166
sS'114G'
p528
I166
sS'14318C'
p529
I166
sS'16293T'
p530
I166
sS'3441G'
p531
I166
sS'6737G'
p532
I166
sS'7963G'
p533
I166
sS'9866T'
p534
I166
sS'5563A'
p535
I164
sS'7391C'
p536
I166
sS'12070A'
p537
I165
sS'6080G'
p538
I166
sS'9713A'
p539
I165
sS'11590G'
p540
I162
sS'10728T'
p541
I166
sS'6485G'
p542
I166
sS'5162C'
p543
I166
sS'2850C'
p544
I166
sS'9612A'
p545
I165
sS'3197C'
p546
I163
sS'10446G'
p547
I166
sS'11743T'
p548
I166
sS'8860G'
p549
I166
sS'6122T'
p550
I166
sS'15028A'
p551
I166
sS'7403G'
p552
I165
sS'850C'
p553
I166
sS'15547T'
p554
I166
sS'4385T'
p555
I166
sS'10154G'
p556
I166
sS'1935G'
p557
I166
sS'5592G'
p558
I165
sS'9653C'
p559
I166
sS'9422C'
p560
I166
sS'6518T'
p561
I166
sS'9150G'
p562
I165
sS'11015G'
p563
I166
sS'10356T'
p564
I166
sS'15157G'
p565
I166
sS'15487T'
p566
I166
sS'5503C'
p567
I166
sS'8790A'
p568
I158
sS'15565C'
p569
I166
sS'10927C'
p570
I166
sS'11914A'
p571
I131
sS'15470C'
p572
I164
sS'13768A'
p573
I166
sS'15487G'
p574
I166
sS'9266A'
p575
I163
sS'5460A!'
p576
I163
sS'10907C'
p577
I165
sS'9599T'
p578
I166
sS'2772T'
p579
I163
sS'2639T'
p580
I166
sS'16287T'
p581
I154
sS'12681C'
p582
I165
sS'8634C'
p583
I166
sS'5633T'
p584
I166
sS'8939C'
p585
I166
sS'2239G'
p586
I166
sS'7789A'
p587
I162
sS'7873T'
p588
I166
sS'14577C'
p589
I164
sS'7610T'
p590
I166
sS'7472G'
p591
I166
sS'11155T'
p592
I166
sS'15939T'
p593
I166
sS'4314C'
p594
I166
sS'6489A'
p595
I166
sS'6284G'
p596
I164
sS'4205C'
p597
I166
sS'8410T'
p598
I164
sS'251A'
p599
I166
sS'8545A'
p600
I164
sS'3084G'
p601
I166
sS'7421G'
p602
I166
sS'14743G'
p603
I166
sS'6182A'
p604
I163
sS'14178C'
p605
I162
sS'15928A'
p606
I161
sS'16234T'
p607
I136
sS'13959T'
p608
I166
sS'11734G'
p609
I166
sS'16258C'
p610
I165
sS'3990T'
p611
I166
sS'7645C'
p612
I163
sS'10295G'
p613
I164
sS'5211T'
p614
I166
sS'14185T'
p615
I165
sS'15313C'
p616
I166
sS'12480T'
p617
I166
sS'242T'
p618
I166
sS'11308T'
p619
I166
sS'5319G'
p620
I163
sS'3210T'
p621
I166
sS'15299C'
p622
I164
sS'16T'
p623
I165
sS'15244G'
p624
I157
sS'14185G'
p625
I166
sS'9557T'
p626
I166
sS'16524G'
p627
I164
sS'15937G'
p628
I165
sS'10003C'
p629
I166
sS'6461G'
p630
I165
sS'16223T'
p631
I161
sS'9300A'
p632
I159
sS'10103G'
p633
I166
sS'15937T'
p634
I166
sS'15836G'
p635
I165
sS'6975C'
p636
I166
sS'11984C'
p637
I164
sS'4203G'
p638
I165
sS'16190T'
p639
I166
sS'10400T'
p640
I166
sS'9431T'
p641
I166
sS'11020G'
p642
I165
sS'15550T'
p643
I166
sS'1352A'
p644
I166
sS'960.1C'
p645
I165
sS'7445C'
p646
I166
sS'6935T'
p647
I166
sS'299d'
p648
I166
sS'6410T'
p649
I166
sS'5581G'
p650
I163
sS'7598A'
p651
I161
sS'4829G'
p652
I166
sS'8288d'
p653
I152
sS'14121T'
p654
I165
sS'1763G'
p655
I165
sS'463T'
p656
I165
sS'12654G'
p657
I164
sS'16183G'
p658
I163
sS'14861A'
p659
I163
sS'15077A'
p660
I165
sS'3537G'
p661
I163
sS'1095C'
p662
I165
sS'3345C'
p663
I165
sS'14629T'
p664
I166
sS'10664T'
p665
I166
sS'16336A'
p666
I165
sS'2141C'
p667
I165
sS'9575A'
p668
I164
sS'2417G'
p669
I166
sS'197G'
p670
I165
sS'15712G'
p671
I165
sS'8392A'
p672
I164
sS'7160T'
p673
I166
sS'13800A'
p674
I166
sS'8345T'
p675
I166
sS'4843T'
p676
I166
sS'15226G'
p677
I164
sS'7082T'
p678
I166
sS'8650T'
p679
I165
sS'3495A'
p680
I166
sS'13303T'
p681
I166
sS'1822C'
p682
I165
sS'7151T'
p683
I165
sS'5823G'
p684
I165
sS'5894G'
p685
I162
sS'12354C'
p686
I164
sS'11293G'
p687
I166
sS'5894C'
p688
I166
sS'537T'
p689
I166
sS'10873C'
p690
I166
sS'6231T'
p691
I165
sS'16356C'
p692
I156
sS'2695A'
p693
I166
sS'12310.1A'
p694
I166
sS'16261T!'
p695
I166
sS'16318G'
p696
I164
sS'10535C'
p697
I164
sS'9066G'
p698
I166
sS'12285G'
p699
I166
sS'16216G'
p700
I165
sS'16269G'
p701
I166
sS'11647T'
p702
I165
sS'12870T'
p703
I165
sS'5375T'
p704
I166
sS'16318T'
p705
I161
sS'14200C'
p706
I165
sS'14905A'
p707
I160
sS'11233C'
p708
I166
sS'16256T'
p709
I140
sS'2281G'
p710
I166
sS'3648T'
p711
I166
sS'12546T'
p712
I166
sS'961G'
p713
I166
sS'9884T'
p714
I166
sS'961C'
p715
I151
sS'16256A'
p716
I166
sS'7022C'
p717
I166
sS'8567C'
p718
I165
sS'7022A'
p719
I166
sS'4136G'
p720
I165
sS'4823C'
p721
I160
sS'8734A'
p722
I166
sS'12161C'
p723
I166
sS'3408T'
p724
I166
sS'15734A'
p725
I162
sS'12909G'
p726
I166
sS'456.1T'
p727
I166
sS'12972G'
p728
I165
sS'6776C'
p729
I165
sS'12396C'
p730
I164
sS'5027T'
p731
I166
sS'8763C'
p732
I166
sS'12223G'
p733
I166
sS'6893T'
p734
I165
sS'7864T'
p735
I166
sS'870T'
p736
I165
sS'13662T'
p737
I166
sS'3492G'
p738
I166
sS'4538T'
p739
I166
sS'1836G'
p740
I165
sS'3828G'
p741
I166
sS'16163G'
p742
I163
sS'13768C'
p743
I163
sS'14692G'
p744
I166
sS'12361G'
p745
I163
sS'1009T'
p746
I165
sS'551G'
p747
I166
sS'4023C'
p748
I165
sS'9536T'
p749
I166
sS'16290T'
p750
I152
sS'814G'
p751
I166
sS'527T'
p752
I165
sS'3398C'
p753
I163
sS'10217G'
p754
I166
sS'9971T'
p755
I166
sS'3720G'
p756
I164
sS'15663C'
p757
I163
sS'8711G'
p758
I166
sS'1018A'
p759
I165
sS'6716G'
p760
I165
sS'4763A'
p761
I166
sS'7154G'
p762
I166
sS'11548G'
p763
I166
sS'16158G'
p764
I165
sS'547G'
p765
I166
sS'8296G'
p766
I165
sS'2755G'
p767
I163
sS'7999C'
p768
I166
sS'14275T'
p769
I166
sS'13720T'
p770
I166
sS'12372A'
p771
I160
sS'9667G'
p772
I163
sS'10670T'
p773
I166
sS'14750G'
p774
I166
sS'3819T'
p775
I164
sS'10951A'
p776
I166
sS'4435G'
p777
I165
sS'9580G'
p778
I166
sS'10335C'
p779
I165
sS'2225A'
p780
I166
sS'12648G'
p781
I165
sS'16227G!'
p782
I165
sS'16086C'
p783
I144
sS'280G'
p784
I166
sS'11014T'
p785
I166
sS'7493T'
p786
I166
sS'9233C'
p787
I164
sS'9632G'
p788
I165
sS'16051G'
p789
I149
sS'6689A'
p790
I166
sS'2701A'
p791
I166
sS'16102C'
p792
I166
sS'6599G'
p793
I165
sS'11176A'
p794
I160
sS'11038G'
p795
I166
sS'14818C'
p796
I166
sS'10908C'
p797
I166
sS'15817G'
p798
I166
sS'11764G'
p799
I166
sS'7055G!'
p800
I166
sS'12753G'
p801
I165
sS'930A'
p802
I159
sS'7960G'
p803
I163
sS'12666C'
p804
I166
sS'7960C'
p805
I166
sS'7265G'
p806
I166
sS'12954C'
p807
I165
sS'139C'
p808
I166
sS'16000A'
p809
I165
sS'3948G'
p810
I166
sS'7694T'
p811
I166
sS'9458T'
p812
I166
sS'4491A'
p813
I162
sS'14340T'
p814
I166
sS'3513T'
p815
I164
sS'3591A'
p816
I158
sS'11902A'
p817
I166
sS'15136T'
p818
I166
sS'9224C'
p819
I166
sS'8994A'
p820
I161
sS'5930C'
p821
I166
sS'7735G'
p822
I166
sS'13167G'
p823
I165
sS'8901G'
p824
I165
sS'13753C'
p825
I164
sS'15941C'
p826
I161
sS'13278G'
p827
I166
sS'560T'
p828
I166
sS'8854A'
p829
I166
sS'11149A'
p830
I166
sS'16398A'
p831
I166
sS'12624C'
p832
I166
sS'6641C'
p833
I165
sS'3453T'
p834
I165
sS'10727T'
p835
I166
sS'16525G'
p836
I165
sS'13132T'
p837
I166
sS'965.XC'
p838
I164
sS'10104T'
p839
I166
sS'669C'
p840
I166
sS'9872G'
p841
I166
sS'4200T'
p842
I166
sS'1473T'
p843
I166
sS'9605T'
p844
I166
sS'9650T'
p845
I166
sS'9337C'
p846
I165
sS'16286T'
p847
I161
sS'2392C'
p848
I164
sS'4200G'
p849
I166
sS'16193T'
p850
I154
sS'8805G'
p851
I166
sS'14927G'
p852
I164
sS'14501G'
p853
I166
sS'7295G'
p854
I165
sS'8251A!'
p855
I166
sS'7444A'
p856
I165
sS'5234T'
p857
I166
sS'16193d'
p858
I164
sS'460C'
p859
I165
sS'15402T'
p860
I166
sS'9812T'
p861
I166
sS'15074C'
p862
I166
sS'15058T'
p863
I166
sS'8087C'
p864
I166
sS'8381G'
p865
I166
sS'5069T'
p866
I166
sS'6413C'
p867
I162
sS'13557G'
p868
I166
sS'5586T'
p869
I166
sS'6932G'
p870
I165
sS'9275G'
p871
I166
sS'6950T'
p872
I166
sS'15460T'
p873
I166
sS'9311C'
p874
I166
sS'1888A!'
p875
I166
sS'8923G'
p876
I166
sS'6689T'
p877
I166
sS'14053G'
p878
I158
sS'6584T'
p879
I166
sS'6794G'
p880
I165
sS'676A'
p881
I165
sS'11440A'
p882
I156
sS'13152G'
p883
I166
sS'12693G'
p884
I166
sS'3546T'
p885
I166
sS'8817G'
p886
I166
sS'680C'
p887
I166
sS'13125T'
p888
I166
sS'6032A'
p889
I166
sS'15459T'
p890
I165
sS'15802G'
p891
I166
sS'1664A'
p892
I163
sS'11242G'
p893
I166
sS'15010G'
p894
I166
sS'16249C!'
p895
I166
sS'12720G'
p896
I164
sS'16268T'
p897
I166
sS'951A'
p898
I162
sS'3915A'
p899
I159
sS'4295G'
p900
I166
sS'499A'
p901
I160
sS'4833G'
p902
I165
sS'13422G'
p903
I165
sS'13827G'
p904
I160
sS'15508T'
p905
I165
sS'4525C'
p906
I166
sS'8506C'
p907
I166
sS'16257d'
p908
I166
sS'13967T'
p909
I164
sS'6359G'
p910
I164
sS'14851G'
p911
I166
sS'960d'
p912
I166
sS'11617C'
p913
I166
sS'6378C'
p914
I164
sS'4884G'
p915
I166
sS'9410G'
p916
I166
sS'16257T'
p917
I164
sS'12441C'
p918
I163
sS'9380A'
p919
I162
sS'723C'
p920
I165
sS'794C'
p921
I166
sS'16111T!'
p922
I164
sS'9064A'
p923
I163
sS'13317A'
p924
I165
sS'1692T'
p925
I166
sS'3696T'
p926
I166
sS'5276G'
p927
I165
sS'14148G'
p928
I160
sS'11318C'
p929
I166
sS'16257A'
p930
I166
sS'14659T'
p931
I166
sS'10550G'
p932
I166
sS'4820A'
p933
I163
sS'2282T'
p934
I166
sS'8566G'
p935
I165
sS'10410A'
p936
I165
sS'10410C'
p937
I164
sS'13431T'
p938
I165
sS'8603C'
p939
I166
sS'16235G'
p940
I157
sS'9027T'
p941
I166
sS'250C'
p942
I166
sS'1719A'
p943
I144
sS'16259T'
p944
I164
sS'4541A'
p945
I165
sS'1211A'
p946
I163
sS'634C'
p947
I166
sS'9758C'
p948
I164
sS'16259A'
p949
I166
sS'11719A'
p950
I164
sS'15385T'
p951
I166
sS'10529G'
p952
I166
sS'6455T'
p953
I165
sS'9767T'
p954
I166
sS'12088T'
p955
I166
sS'14990T'
p956
I166
sS'10199T'
p957
I166
sS'6367C'
p958
I165
sS'783G'
p959
I166
sS'16259.1A'
p960
I166
sS'15315T'
p961
I166
sS'9854C'
p962
I166
sS'15310C'
p963
I166
sS'14911T'
p964
I165
sS'11971T'
p965
I166
sS'2071C'
p966
I166
sS'10609C'
p967
I164
sS'12384C'
p968
I166
sS'14788C'
p969
I166
sS'16355A'
p970
I166
sS'13830C'
p971
I161
sS'7150C'
p972
I166
sS'4093G'
p973
I165
sS'3796G'
p974
I164
sS'4859C'
p975
I165
sS'11549T'
p976
I166
sS'6332G'
p977
I166
sS'526A'
p978
I166
sS'14818G'
p979
I166
sS'3796T'
p980
I166
sS'12940A'
p981
I161
sS'9477A'
p982
I165
sS'333C'
p983
I166
sS'14470C'
p984
I158
sS'11151T'
p985
I162
sS'5915T'
p986
I166
sS'546G'
p987
I165
sS'14684T'
p988
I166
sS'285T'
p989
I166
sS'14272T'
p990
I166
sS'6045T'
p991
I166
sS'8453G'
p992
I166
sS'16342C'
p993
I162
sS'4634C'
p994
I166
sS'92A'
p995
I165
sS'4155T'
p996
I166
sS'3388A'
p997
I166
sS'11923G'
p998
I164
sS'13889A'
p999
I165
sS'15218G'
p1000
I162
sS'6278C'
p1001
I166
sS'9072G'
p1002
I166
sS'1842G'
p1003
I163
sS'12248G'
p1004
I166
sS'16262T'
p1005
I164
sS'228A'
p1006
I157
sS'325T'
p1007
I164
sS'15301A!'
p1008
I166
sS'194T'
p1009
I154
sS'4137T'
p1010
I165
sS'8868C'
p1011
I165
sS'3736A'
p1012
I164
sS'5450T'
p1013
I165
sS'10274C'
p1014
I164
sS'8471T'
p1015
I166
sS'928G'
p1016
I166
sS'2222G'
p1017
I166
sS'2416C'
p1018
I163
sS'16468C'
p1019
I163
sS'14420T'
p1020
I166
sS'10667C'
p1021
I165
sS'3861G'
p1022
I165
sS'4506G'
p1023
I166
sS'487G'
p1024
I166
sS'3308C'
p1025
I164
sS'750G!'
p1026
I165
sS'3308G'
p1027
I166
sS'13404C'
p1028
I165
sS'2749G'
p1029
I166
sS'16327T!'
p1030
I166
sS'8653G'
p1031
I166
sS'4350T'
p1032
I166
sS'5509C'
p1033
I166
sS'7028T!'
p1034
I166
sS'1888A'
p1035
I157
sS'12937G'
p1036
I166
sS'10688A'
p1037
I166
sS'7961C'
p1038
I162
sS'15617A'
p1039
I165
sS'12612G'
p1040
I161
sS'2885C'
p1041
I165
sS'7783C'
p1042
I166
sS'1452C'
p1043
I165
sS'9123A'
p1044
I164
sS'9459T'
p1045
I166
sS'13612T'
p1046
I166
sS'513A'
p1047
I151
sS'10376G'
p1048
I166
sS'1719.1G'
p1049
I166
sS'650C'
p1050
I166
sS'10704A'
p1051
I166
sS'1503A'
p1052
I162
sS'8772C'
p1053
I165
sS'3450T'
p1054
I166
sS'15940C'
p1055
I162
sS'1284C'
p1056
I166
sS'4044G'
p1057
I166
sS'851G'
p1058
I166
sS'13204A'
p1059
I166
sS'8853G'
p1060
I165
sS'11086G'
p1061
I166
sS'11878C'
p1062
I165
sS'3505G'
p1063
I162
sS'14325C'
p1064
I164
sS'8982G'
p1065
I165
sS'1386C'
p1066
I166
sS'2833G'
p1067
I164
sS'12672G'
p1068
I165
sS'4991A'
p1069
I162
sS'1808G'
p1070
I166
sS'16148T'
p1071
I149
sS'8188G'
p1072
I159
sS'10987G'
p1073
I166
sS'298T'
p1074
I166
sS'15735T'
p1075
I166
sS'7972G'
p1076
I165
sS'9145A'
p1077
I166
sS'3498T'
p1078
I166
sS'11485C'
p1079
I164
sS'298A'
p1080
I166
sS'15651T'
p1081
I166
sS'8762C'
p1082
I166
sS'10316G'
p1083
I165
sS'3395G'
p1084
I166
sS'16291T'
p1085
I132
sS'10640C'
p1086
I164
sS'16164G'
p1087
I164
sS'14693G'
p1088
I163
sS'12366G'
p1089
I165
sS'8584A'
p1090
I162
sS'16291G'
p1091
I166
sS'6491A'
p1092
I166
sS'16291A'
p1093
I166
sS'9468G'
p1094
I164
sS'15791G'
p1095
I165
sS'6881G'
p1096
I163
sS'3936T'
p1097
I166
sS'7874G'
p1098
I166
sS'57C'
p1099
I164
sS'8922T'
p1100
I166
sS'3558G'
p1101
I166
sS'8701G!'
p1102
I164
sS'15521C'
p1103
I166
sS'9711T'
p1104
I166
sS'8271G'
p1105
I166
sS'3290C'
p1106
I163
sS'5309G'
p1107
I166
sS'16299G'
p1108
I163
sS'6086C'
p1109
I166
sS'6951A'
p1110
I166
sS'417A'
p1111
I164
sS'8271T'
p1112
I166
sS'11044T'
p1113
I165
sS'15458C'
p1114
I164
sS'477C'
p1115
I166
sS'5291C'
p1116
I164
sS'15199T'
p1117
I166
sS'7302C'
p1118
I166
sS'14029G'
p1119
I166
sS'12651C'
p1120
I166
sS'3567T'
p1121
I166
sS'3547G'
p1122
I165
sS'14071G'
p1123
I166
sS'7228G'
p1124
I166
sS'9596G'
p1125
I166
sS'9494G'
p1126
I163
sS'13068G'
p1127
I166
sS'15289C'
p1128
I163
sS'7490G'
p1129
I166
sS'5051G'
p1130
I166
sS'15082T'
p1131
I166
sS'8289.1CCCCCTCTACCCCCTCTA'
p1132
I166
sS'5004C'
p1133
I163
sS'5501G'
p1134
I166
sS'13188T'
p1135
I165
sS'10334T'
p1136
I166
sS'8913G'
p1137
I166
sS'14417G'
p1138
I166
sS'9682C'
p1139
I162
sS'15965G'
p1140
I166
sS'13630G'
p1141
I166
sS'1005C'
p1142
I161
sS'10172A'
p1143
I163
sS'14548G'
p1144
I166
sS'15518T'
p1145
I166
sS'9033G'
p1146
I164
sS'11177T'
p1147
I164
sS'14819C'
p1148
I166
sS'12729G'
p1149
I166
sS'8844T'
p1150
I166
sS'14571A'
p1151
I166
sS'380A'
p1152
I166
sS'6179A'
p1153
I165
sS'4230T'
p1154
I166
sS'16181G'
p1155
I165
sS'12338C'
p1156
I164
sS'2626C'
p1157
I160
sS'58C!'
p1158
I166
sS'10411G'
p1159
I166
sS'9046G'
p1160
I166
sS'8527G'
p1161
I166
sS'7002T'
p1162
I166
sS'14027T'
p1163
I166
sS'14047G'
p1164
I166
sS'9091G'
p1165
I166
sS'8547C'
p1166
I166
sS'8775T'
p1167
I165
sS'3996T'
p1168
I165
sS'12136C'
p1169
I162
sS'6366A'
p1170
I160
sS'9855G'
p1171
I166
sS'15311G'
p1172
I166
sS'14845T'
p1173
I166
sS'3212T'
p1174
I166
sS'4194T'
p1175
I166
sS'6554T'
p1176
I166
sS'16526A'
p1177
I158
sS'13263G'
p1178
I164
sS'16192T'
p1179
I145
sS'16221T'
p1180
I165
sS'9804A'
p1181
I165
sS'222T'
p1182
I165
sS'8137T'
p1183
I165
sS'10005G'
p1184
I166
sS'6920A'
p1185
I166
sS'12843C'
p1186
I166
sS'9356T'
p1187
I165
sS'9101C'
p1188
I166
sS'16370A'
p1189
I166
sS'14324C'
p1190
I166
sS'11302T'
p1191
I166
sS'13911G'
p1192
I166
sS'7765G'
p1193
I163
sS'14502C'
p1194
I161
sS'13020A'
p1195
I166
sS'8071G'
p1196
I166
sS'13020C'
p1197
I163
sS'5587C'
p1198
I166
sS'1734T'
p1199
I165
sS'13212T'
p1200
I163
sS'9296T'
p1201
I166
sS'3504C'
p1202
I165
sS'2766T'
p1203
I166
sS'7547C'
p1204
I166
sS'6614C'
p1205
I165
sS'10118C'
p1206
I166
sS'461T'
p1207
I166
sS'6308T'
p1208
I166
sS'13443C'
p1209
I166
sS'14211T'
p1210
I166
sS'8470G'
p1211
I164
sS'5899.1C'
p1212
I165
sS'10891G'
p1213
I166
sS'3970T'
p1214
I165
sS'324T'
p1215
I166
sS'12816T'
p1216
I166
sS'8164T'
p1217
I164
sS'9004T'
p1218
I166
sS'8343G'
p1219
I166
sS'8108G'
p1220
I165
sS'1309G'
p1221
I166
sS'731G'
p1222
I166
sS'15862C'
p1223
I165
sS'14867T'
p1224
I166
sS'16483A'
p1225
I166
sS'6353G'
p1226
I164
sS'16362C!'
p1227
I162
sS'195A'
p1228
I165
sS'195C'
p1229
I79
sS'5896T'
p1230
I166
sS'1406C'
p1231
I165
sS'5814C'
p1232
I166
sS'12103T'
p1233
I166
sS'8572A'
p1234
I162
sS'15224T'
p1235
I166
sS'11899C'
p1236
I164
sS'6296T'
p1237
I166
sS'2045G'
p1238
I165
sS'15208G'
p1239
I166
sS'8014G'
p1240
I165
sS'8116G'
p1241
I166
sS'11344G'
p1242
I166
sS'13105G!'
p1243
I166
sS'16214T'
p1244
I159
sS'244G'
p1245
I166
sS'11353C'
p1246
I163
sS'215G'
p1247
I162
sS'16187T'
p1248
I156
sS'14605T'
p1249
I166
sS'13879C'
p1250
I159
sS'16316G'
p1251
I160
sS'93G'
p1252
I148
sS'4553C'
p1253
I164
sS'13572C'
p1254
I166
sS'150T!'
p1255
I165
sS'4216C'
p1256
I155
sS'13984T'
p1257
I165
sS'14605G'
p1258
I164
sS'14769G'
p1259
I162
sS'12876T'
p1260
I166
sS'8002T'
p1261
I166
sS'14149T'
p1262
I165
sS'127C'
p1263
I164
sS'1716C'
p1264
I166
sS'271T'
p1265
I166
sS'3981G'
p1266
I165
sS'15703G'
p1267
I166
sS'6365C'
p1268
I166
sS'5277C'
p1269
I165
sS'722T'
p1270
I165
sS'16254G'
p1271
I165
sS'5331A'
p1272
I166
sS'11362G'
p1273
I166
sS'7657C'
p1274
I164
sS'2283T'
p1275
I164
sS'4562G'
p1276
I161
sS'16309G'
p1277
I159
sS'11506C'
p1278
I165
sS'13327G'
p1279
I166
sS'13722G'
p1280
I160
sS'9490T'
p1281
I166
sS'11101G'
p1282
I164
sS'8765T'
p1283
I166
sS'14364A'
p1284
I159
sS'16465T'
p1285
I162
sS'7975G'
p1286
I165
sS'14308C'
p1287
I163
sS'1834C'
p1288
I166
sS'11248G'
p1289
I166
sS'5021C'
p1290
I166
sS'16325C!'
p1291
I166
sS'3394C'
p1292
I162
sS'7298G'
p1293
I165
sS'15431A'
p1294
I163
sS'12121C'
p1295
I164
sS'9242G'
p1296
I165
sS'72C!'
p1297
I165
sS'13731G'
p1298
I166
sS'14476A'
p1299
I164
sS'11116C'
p1300
I165
sS'14109T'
p1301
I166
sS'14870G'
p1302
I166
sS'195C!'
p1303
I155
sS'15758G'
p1304
I154
sS'11399C'
p1305
I166
sS'13287T'
p1306
I166
sS'13833G'
p1307
I166
sS'13680T'
p1308
I164
sS'14260G'
p1309
I166
sS'15661T'
p1310
I166
sS'11566G'
p1311
I166
sS'14388G'
p1312
I166
sS'16354T'
p1313
I160
sS'15634G'
p1314
I166
sS'13782T'
p1315
I166
sS'6915A'
p1316
I166
sS'12245C'
p1317
I166
sS'5978G'
p1318
I162
sS'1420C'
p1319
I166
sS'10493G'
p1320
I166
sS'16343T'
p1321
I166
sS'10493C'
p1322
I165
sS'15769C'
p1323
I166
sS'2405.1C'
p1324
I166
sS'3621C'
p1325
I166
sS'15769G'
p1326
I164
sS'16343G'
p1327
I164
sS'5780A'
p1328
I166
sS'12398T'
p1329
I166
sS'11533T'
p1330
I166
sS'9219G'
p1331
I166
sS'16241T'
p1332
I166
sS'11016A'
p1333
I153
sS'571T'
p1334
I166
sS'14581C'
p1335
I163
sS'13966G'
p1336
I160
sS'210G'
p1337
I162
sS'6216C'
p1338
I161
sS'15613G'
p1339
I161
sS'8742G'
p1340
I166
sS'8793C'
p1341
I164
sS'9377G'
p1342
I159
sS'119C'
p1343
I166
sS'8289d'
p1344
I152
sS'7269A'
p1345
I163
sS'14871C'
p1346
I166
sS'15811T'
p1347
I166
sS'13269G'
p1348
I163
sS'16304C!'
p1349
I163
sS'8829T'
p1350
I166
sS'13637G'
p1351
I163
sS'2757G'
p1352
I165
sS'7245G'
p1353
I166
sS'8910T'
p1354
I166
sS'13143C'
p1355
I165
sS'8898T'
p1356
I166
sS'7724T'
p1357
I166
sS'15519C'
p1358
I164
sS'4707T'
p1359
I166
sS'16265C'
p1360
I161
sS'9108G'
p1361
I166
sS'15676T'
p1362
I166
sS'3511G'
p1363
I166
sS'1673C'
p1364
I166
sS'16114T'
p1365
I161
sS'1303A'
p1366
I164
sS'3442T'
p1367
I166
sS'12130C'
p1368
I165
sS'7385G'
p1369
I166
sS'288G'
p1370
I166
sS'3116T'
p1371
I165
sS'16114A'
p1372
I161
sS'16298C!'
p1373
I162
sS'1453G'
p1374
I166
sS'1788T'
p1375
I166
sS'15090C'
p1376
I165
sS'16168T'
p1377
I156
sS'11422T'
p1378
I166
sS'418T'
p1379
I166
sS'10698T'
p1380
I166
sS'8958T'
p1381
I166
sS'6743C'
p1382
I166
sS'3391A'
p1383
I165
sS'62A'
p1384
I166
sS'4767G'
p1385
I164
sS'3206T'
p1386
I166
sS'16227G'
p1387
I165
sS'14770T'
p1388
I166
sS'11857T'
p1389
I166
sS'13755T'
p1390
I166
sS'12777G'
p1391
I166
sS'593C'
p1392
I159
sS'6701G'
p1393
I166
sS'593A'
p1394
I166
sS'6923G'
p1395
I166
sS'15833T'
p1396
I165
sS'16195C'
p1397
I162
sS'7909T'
p1398
I166
sS'16220C'
p1399
I164
sS'2056A'
p1400
I164
sS'16527T'
p1401
I156
sS'16220G'
p1402
I166
sS'3822T'
p1403
I166
sS'5568G'
p1404
I166
sS'11728T'
p1405
I166
sS'3204T'
p1406
I164
sS'5417A'
p1407
I165
sS'11023G'
p1408
I166
sS'5686T'
p1409
I166
sS'16438A'
p1410
I165
sS'5584G'
p1411
I166
sS'9297T'
p1412
I166
sS'5181G'
p1413
I166
sS'15607G'
p1414
I164
sS'11023T'
p1415
I166
sS'15001C'
p1416
I165
sS'15553A'
p1417
I162
sS'7939T'
p1418
I166
sS'8270T'
p1419
I165
sS'12030G'
p1420
I166
sS'10324C'
p1421
I166
sS'15924G!'
p1422
I166
sS'14004T'
p1423
I166
sS'9863T'
p1424
I166
sS'10790C'
p1425
I164
sS'9299G'
p1426
I164
sS'9341T'
p1427
I166
sS'11875C'
p1428
I166
sS'6261A'
p1429
I160
sS'12358G'
p1430
I155
sS'573.XC'
p1431
I139
sS'16131C'
p1432
I165
sS'6480A'
p1433
I164
sS'8818T'
p1434
I166
sS'10166C'
p1435
I164
sS'3564G'
p1436
I166
sS'2887C'
p1437
I163
sS'1148G'
p1438
I166
sS'8867C'
p1439
I165
sS'14981C'
p1440
I166
sS'11458G'
p1441
I166
sS'13032G'
p1442
I164
sS'7468T'
p1443
I166
sS'8222C'
p1444
I164
sS'10783C'
p1445
I166
sS'3548C'
p1446
I166
sS'15247G'
p1447
I166
sS'14180C'
p1448
I164
sS'7388G'
p1449
I163
sS'13965C'
p1450
I164
sS'1703T!'
p1451
I166
sS'241G'
p1452
I165
sS'3927G'
p1453
I166
sS'4550C'
p1454
I166
sS'182T'
p1455
I162
sS'11350G'
p1456
I165
sS'4188G'
p1457
I166
sS'16292T!'
p1458
I165
sS'15247T'
p1459
I166
sS'16215G'
p1460
I163
sS'16344T'
p1461
I162
sS'497T'
p1462
I166
sS'11821G'
p1463
I166
sS'11329G'
p1464
I166
sS'13420T'
p1465
I166
sS'6045A'
p1466
I166
sS'13468T'
p1467
I166
sS'796A'
p1468
I166
sS'11662C'
p1469
I166
sS'8602C'
p1470
I166
sS'15874G'
p1471
I165
sS'10556T'
p1472
I166
sS'8548C'
p1473
I166
sS'2792G'
p1474
I166
sS'1715T'
p1475
I165
sS'13542G'
p1476
I162
sS'10188G'
p1477
I166
sS'270G'
p1478
I166
sS'13542C'
p1479
I166
sS'16255A'
p1480
I164
sS'488G'
p1481
I166
sS'12855G'
p1482
I166
sS'8014T'
p1483
I166
sS'14139G'
p1484
I166
sS'15514C'
p1485
I162
sS'8628T'
p1486
I166
sS'9725C'
p1487
I165
sS'6497C'
p1488
I165
sS'252C'
p1489
I166
sS'15287C'
p1490
I164
sS'8014C'
p1491
I166
sS'8063C'
p1492
I166
sS'15250T'
p1493
I165
sS'9809C'
p1494
I166
sS'12020T'
p1495
I166
sS'548T'
p1496
I166
sS'6005T'
p1497
I166
sS'7319C'
p1498
I166
sS'8684T'
p1499
I165
sS'4317d'
p1500
I165
sS'12135A'
p1501
I166
sS'3213G'
p1502
I166
sS'11671G'
p1503
I165
sS'5471A'
p1504
I159
sS'12019T'
p1505
I165
sS'9670G'
p1506
I165
sS'8281d'
p1507
I152
sS'12135T'
p1508
I166
sS'8460G'
p1509
I165
sS'3337A'
p1510
I164
sS'3663G'
p1511
I166
sS'752T'
p1512
I166
sS'7109T'
p1513
I166
sS'3960T'
p1514
I166
sS'2232.1A'
p1515
I165
sS'8388C'
p1516
I166
sS'6830A'
p1517
I166
sS'16320T'
p1518
I150
sS'4013T'
p1519
I166
sS'15775G'
p1520
I166
sS'4561C'
p1521
I163
sS'12164A'
p1522
I166
sS'13681G'
p1523
I162
sS'11227T'
p1524
I166
sS'6221A'
p1525
I166
sS'6221C'
p1526
I160
sS'3338C'
p1527
I165
sS'8646T'
p1528
I166
sS'507C'
p1529
I165
sS'16179T'
p1530
I159
sS'2758A'
p1531
I164
sS'10490C'
p1532
I165
sS'331G'
p1533
I166
sS'7196A'
p1534
I166
sS'8473C'
p1535
I159
sS'11287C'
p1536
I164
sS'5465C'
p1537
I166
sS'3496T'
p1538
I166
sS'7196T'
p1539
I165
sS'1291C'
p1540
I166
sS'12346T'
p1541
I155
sS'14037G'
p1542
I166
sS'9070G'
p1543
I166
sS'3546A'
p1544
I166
sS'14574T'
p1545
I166
sS'7076G'
p1546
I164
sS'16221T!'
p1547
I166
sS'7700T'
p1548
I166
sS'1193C'
p1549
I164
sS'5483C'
p1550
I164
sS'8428T'
p1551
I166
sS'16482G'
p1552
I166
sS'5452T'
p1553
I166
sS'14971C'
p1554
I165
sS'14212C'
p1555
I163
sS'5378G'
p1556
I165
sS'4703C'
p1557
I163
sS'16301T'
p1558
I157
sS'4140T'
p1559
I166
sS'11465C'
p1560
I164
sS'326G'
p1561
I166
sS'327T'
p1562
I165
sS'6125G'
p1563
I166
sS'8395T'
p1564
I165
sS'4529T'
p1565
I166
sS'4598C'
p1566
I166
sS'8573A'
p1567
I165
sS'12351C'
p1568
I166
sS'14338T'
p1569
I166
sS'13614G'
p1570
I165
sS'6620C'
p1571
I153
sS'9109G'
p1572
I165
sS'6620G'
p1573
I166
sS'1106T'
p1574
I166
sS'4496T'
p1575
I166
sS'7382A'
p1576
I166
sS'13740C'
p1577
I166
sS'15679G'
p1578
I166
sS'13386C'
p1579
I166
sS'11191T'
p1580
I166
sS'15235G'
p1581
I166
sS'110d'
p1582
I164
sS'10825G'
p1583
I166
sS'12308G'
p1584
I165
sS'14866T'
p1585
I166
sS'15229C'
p1586
I166
sS'63C'
p1587
I164
sS'15047A'
p1588
I165
sS'16317G'
p1589
I165
sS'7220C'
p1590
I165
sS'13251T'
p1591
I166
sS'11075C'
p1592
I165
sS'13656C'
p1593
I163
sS'16217C'
p1594
I163
sS'437T'
p1595
I166
sS'13326C'
p1596
I163
sS'4850T'
p1597
I166
sS'10256C'
p1598
I165
sS'14755G'
p1599
I165
sS'3357A'
p1600
I165
sS'12603T'
p1601
I165
sS'485C'
p1602
I163
sS'14497G'
p1603
I166
sS'103A'
p1604
I164
sS'7792T'
p1605
I166
sS'4680A'
p1606
I166
sS'5999C'
p1607
I165
sS'6827C'
p1608
I163
sS'14953T'
p1609
I165
sS'8308G'
p1610
I166
sS'4596A'
p1611
I163
sS'14755T'
p1612
I166
sS'4086T'
p1613
I165
sS'14365T'
p1614
I166
sS'8764A'
p1615
I164
sS'7816T'
p1616
I166
sS'3801C'
p1617
I166
sS'10646A'
p1618
I164
sS'10310C'
p1619
I166
sS'3397G'
p1620
I162
sS'7299G'
p1621
I163
sS'6047G'
p1622
I166
sS'3254A'
p1623
I166
sS'16400T'
p1624
I159
sS'13749T'
p1625
I165
sS'8400C'
p1626
I166
sS'6887T'
p1627
I166
sS'4059T'
p1628
I165
sS'7678C'
p1629
I166
sS'16297C'
p1630
I164
sS'14766T!'
p1631
I164
sS'14449G'
p1632
I166
sS'10598G'
p1633
I164
sS'1819C'
p1634
I166
sS'4026G'
p1635
I166
sS'15175T'
p1636
I165
sS'15523T'
p1637
I166
sS'3525A'
p1638
I166
sS'6503C'
p1639
I166
sS'10325A'
p1640
I161
sS'10822T'
p1641
I166
sS'8730G'
p1642
I163
sS'8607T'
p1643
I166
sS'5567C'
p1644
I166
sS'16094C'
p1645
I166
sS'15391T'
p1646
I165
sS'6581G'
p1647
I166
sS'9316C'
p1648
I165
sS'8277C'
p1649
I159
sS'11409T'
p1650
I166
sS'3525T'
p1651
I166
sS'9644G'
p1652
I166
sS'14869A'
p1653
I165
sS'9862A'
p1654
I166
sS'15391A'
p1655
I166
sS'12459G'
p1656
I166
sS'14007G'
p1657
I165
sS'4336C'
p1658
I165
sS'14869C'
p1659
I165
sS'8888C'
p1660
I166
sS'12810G'
p1661
I160
sS'12696C'
p1662
I162
sS'11818G'
p1663
I166
sS'11776C'
p1664
I165
sS'15803A'
p1665
I165
sS'7274T'
p1666
I166
sS'9061T'
p1667
I166
sS'13059T'
p1668
I166
sS'6146G'
p1669
I165
sS'4711T'
p1670
I166
sS'14560C'
p1671
I166
sS'4122G'
p1672
I165
sS'5297T'
p1673
I166
sS'12798T'
p1674
I166
sS'9419T'
p1675
I166
sS'12295C'
p1676
I166
sS'15024A'
p1677
I166
sS'13968A'
p1678
I166
sS'5084G'
p1679
I166
sS'12674G'
p1680
I166
sS'16083T'
p1681
I166
sS'723G'
p1682
I164
sS'10733T'
p1683
I165
sS'5100T'
p1684
I166
sS'8886A'
p1685
I165
sS'14582G'
p1686
I166
sS'12621T'
p1687
I166
sS'7503d'
p1688
I166
sS'3756G'
p1689
I165
sS'983T'
p1690
I165
sS'14455T'
p1691
I166
sS'12557T'
p1692
I164
sS'6164T'
p1693
I162
sS'13254C'
p1694
I165
sS'4181G'
p1695
I166
sS'15080G'
p1696
I165
sS'10709C'
p1697
I166
sS'8911C'
p1698
I165
sS'12636T'
p1699
I165
sS'2702A'
p1700
I166
sS'15951G'
p1701
I165
sS'9098C'
p1702
I164
sS'5423G'
p1703
I166
sS'2283T!'
p1704
I166
sS'2322A'
p1705
I166
sS'4706G'
p1706
I166
sS'16298C'
p1707
I155
sS'7313T'
p1708
I166
sS'11869A'
p1709
I166
sS'408A'
p1710
I164
sS'12669T'
p1711
I165
sS'6425C'
p1712
I164
sS'15304A'
p1713
I166
sS'9840A'
p1714
I166
sS'1736G'
p1715
I166
sS'239C'
p1716
I163
sS'15454C'
p1717
I163
sS'15386T'
p1718
I166
sS'14070G'
p1719
I166
sS'14049T'
p1720
I166
sS'9156G'
p1721
I164
sS'4310G'
p1722
I165
sS'16311C!'
p1723
I161
sS'16320T!'
p1724
I165
sS'8282d'
p1725
I152
sS'13926C'
p1726
I165
sS'16230G'
p1727
I163
sS'9815T'
p1728
I166
sS'9428C'
p1729
I166
sS'13017G'
p1730
I166
sS'6663G'
p1731
I166
sS'272G'
p1732
I166
sS'9093G'
p1733
I166
sS'10978G'
p1734
I163
sS'11974G'
p1735
I165
sS'3849A'
p1736
I162
sS'12134C'
p1737
I166
sS'1341T'
p1738
I166
sS'456T'
p1739
I160
sS'7058C'
p1740
I166
sS'5315G'
p1741
I166
sS'348G'
p1742
I166
sS'15700T'
p1743
I166
sS'11696A'
p1744
I163
sS'8084G'
p1745
I166
sS'15530C'
p1746
I162
sS'5177A'
p1747
I165
sS'8721G'
p1748
I166
sS'14067T'
p1749
I166
sS'6578G'
p1750
I166
sS'11977T'
p1751
I166
sS'9338T'
p1752
I166
sS'15832T'
p1753
I166
sS'8260C'
p1754
I165
sS'12570G'
p1755
I166
sS'9201T'
p1756
I166
sS'16194C'
p1757
I165
sS'15412C'
p1758
I162
sS'16194G'
p1759
I166
sS'10007C'
p1760
I165
sS'13135A'
p1761
I156
sS'9338G'
p1762
I166
sS'9301T'
p1763
I166
sS'6416G'
p1764
I166
sS'3918A'
p1765
I163
sS'15449C'
p1766
I165
sS'6020T'
p1767
I166
sS'4811G'
p1768
I165
sS'1656G'
p1769
I166
sS'6341T'
p1770
I166
sS'12408C'
p1771
I163
sS'5585A'
p1772
I156
sS'7013A'
p1773
I165
sS'7331T'
p1774
I166
sS'7301G'
p1775
I166
sS'8291G'
p1776
I166
sS'14125T'
p1777
I166
sS'8472T'
p1778
I166
sS'8946G'
p1779
I166
sS'3613T'
p1780
I166
sS'14794T'
p1781
I166
sS'1438G!'
p1782
I158
sS'4132A'
p1783
I165
sS'13813A'
p1784
I166
sS'12083G'
p1785
I166
sS'7822G'
p1786
I164
sS'9071T'
p1787
I166
sS'11224G'
p1788
I166
sS'10604C'
p1789
I166
sS'15629C'
p1790
I162
sS'11326T'
p1791
I165
sS'12451G'
p1792
I166
sS'193G'
p1793
I166
sS'16296T!'
p1794
I163
sS'4695C'
p1795
I165
sS'3972G'
p1796
I164
sS'4577T'
p1797
I166
sS'13485G'
p1798
I166
sS'512G'
p1799
I166
sS'979T'
p1800
I166
sS'2010C'
p1801
I166
sS'512C'
p1802
I166
sS'8429T'
p1803
I165
sS'16263C'
p1804
I158
sS'4696C'
p1805
I165
sS'13407G'
p1806
I166
sS'11239G'
p1807
I165
sS'9941G'
p1808
I165
sS'217C'
p1809
I162
sS'11959G'
p1810
I164
sS'1709A'
p1811
I160
sS'14110C'
p1812
I161
sS'16241G'
p1813
I162
sS'5393C'
p1814
I163
sS'185T'
p1815
I166
sS'10283G'
p1816
I162
sS'4221A'
p1817
I166
sS'14103A'
p1818
I166
sS'3675G'
p1819
I166
sS'8503C'
p1820
I164
sS'942G'
p1821
I165
sS'10029G'
p1822
I166
sS'185A'
p1823
I149
sS'954T'
p1824
I166
sS'15358G'
p1825
I166
sS'4218C'
p1826
I166
sS'634A'
p1827
I166
sS'12630A'
p1828
I160
sS'1694C'
p1829
I164
sS'10619T'
p1830
I166
sS'9540C'
p1831
I166
sS'3753C'
p1832
I165
sS'15850G'
p1833
I166
sS'15326G'
p1834
I166
sS'16254C'
p1835
I166
sS'10268T'
p1836
I166
sS'5255T'
p1837
I164
sS'4688A'
p1838
I166
sS'5048C'
p1839
I165
sS'9957C'
p1840
I165
sS'534T'
p1841
I164
sS'14224G'
p1842
I166
sS'10607T'
p1843
I166
sS'469G'
p1844
I166
sS'6752G'
p1845
I163
sS'10042G'
p1846
I166
sS'14494C'
p1847
I166
sS'9962A'
p1848
I165
sS'5231A'
p1849
I159
sS'9115G'
p1850
I165
sS'6632C'
p1851
I164
sS'15886T'
p1852
I166
sS'12410G'
p1853
I166
sS'159C'
p1854
I165
sS'11554G'
p1855
I166
sS'16294T'
p1856
I145
sS'295A'
p1857
I165
sS'9139A'
p1858
I166
sS'3396C'
p1859
I162
sS'16176T!'
p1860
I166
sS'9090C'
p1861
I166
sS'13221G'
p1862
I166
sS'4161T'
p1863
I166
sS'295T'
p1864
I166
sS'6734A'
p1865
I163
sS'7679C'
p1866
I166
sS'6377T'
p1867
I166
sS'1850C'
p1868
I166
sS'4012G'
p1869
I166
sS'15900C'
p1870
I164
sS'7028T'
p1871
I166
sS'8434T'
p1872
I166
sS'14872T'
p1873
I166
sS'8289.1CCCCCTCTA'
p1874
I166
sS'10748G'
p1875
I166
sS'7859A'
p1876
I164
sS'13924T'
p1877
I166
sS'13285G'
p1878
I166
sS'5790A'
p1879
I166
sS'4769G!'
p1880
I164
sS'14371C'
p1881
I164
sS'10202T'
p1882
I166
sS'6629G'
p1883
I162
sS'15213C'
p1884
I166
sS'16093C!'
p1885
I166
sS'11386C'
p1886
I166
sS'7762A'
p1887
I163
sS'16154C'
p1888
I163
sS'15968C'
p1889
I165
sS'14239T'
p1890
I163
sS'3336C'
p1891
I164
sS'2759C'
p1892
I166
sS'7142C'
p1893
I166
sS'1821G'
p1894
I166
sS'12582G'
p1895
I166
sS'3582T'
p1896
I166
sS'8987C'
p1897
I166
sS'16082T'
p1898
I166
sS'108d'
p1899
I164
sS'15178G'
p1900
I166
sS'207A!'
p1901
I166
sS'9923T'
p1902
I166
sS'6167G'
p1903
I166
sS'1537T'
p1904
I166
sS'8887G'
p1905
I165
sS'5054A'
p1906
I161
sS'5054C'
p1907
I165
sS'10595C'
p1908
I165
sS'8610C'
p1909
I165
sS'10044G'
p1910
I165
sS'189C'
p1911
I165
sS'980C'
p1912
I163
sS'6755A'
p1913
I161
sS'8847T'
p1914
I166
sS'73G'
p1915
I156
sS'12425G'
p1916
I166
sS'5178A'
p1917
I166
sS'7471d'
p1918
I165
sS'13174C'
p1919
I164
sS'16232A'
p1920
I166
sS'8740T'
p1921
I166
sS'3145G'
p1922
I164
sS'4705C'
p1923
I166
sS'9371T'
p1924
I166
sS'4772C'
p1925
I164
sS'13635C'
p1926
I164
sS'11797G'
p1927
I166
sS'13748G'
p1928
I166
sS'5580C'
p1929
I160
sS'14470A'
p1930
I166
sS'4197T'
p1931
I165
sS'12453C'
p1932
I166
sS'4727G'
p1933
I166
sS'10685A'
p1934
I158
sS'7283C'
p1935
I165
sS'14059G'
p1936
I166
sS'13617C'
p1937
I165
sS'60d'
p1938
I166
sS'16176G'
p1939
I166
sS'6884T'
p1940
I166
sS'16222T'
p1941
I161
sS'16309G!'
p1942
I165
sS'867T'
p1943
I166
sS'1107C'
p1944
I166
sS'10652C'
p1945
I166
sS'16289G'
p1946
I164
sS'310C'
p1947
I161
sS'9525A'
p1948
I166
sS'111d'
p1949
I165
sS'9521T'
p1950
I166
sS'8592A'
p1951
I164
sS'9947A'
p1952
I162
sS'4047C'
p1953
I164
sS'6692G'
p1954
I166
sS'16167T'
p1955
I162
sS'7624C'
p1956
I165
sS'7624A'
p1957
I166
sS'1289A'
p1958
I166
sS'13651G'
p1959
I161
sS'12990G'
p1960
I166
sS'13116T'
p1961
I166
sS'14066T'
p1962
I166
sS'15479C'
p1963
I163
sS'10124C'
p1964
I165
sS'591A'
p1965
I166
sS'7744C'
p1966
I166
sS'9701C'
p1967
I166
sS'11864C'
p1968
I163
sS'5194T'
p1969
I166
sS'15049T'
p1970
I166
sS'9738A'
p1971
I165
sS'15367T'
p1972
I166
sS'1978G'
p1973
I165
sS'12897G'
p1974
I166
sS'318C!'
p1975
I166
sS'5553C'
p1976
I166
sS'5553G'
p1977
I166
sS'12498T'
p1978
I166
sS'8290A'
p1979
I166
sS'12720G!'
p1980
I165
sS'9836C'
p1981
I166
sS'13272T'
p1982
I166
sS'7394G'
p1983
I166
sS'16048A'
p1984
I162
sS'8703T'
p1985
I164
sS'10792G'
p1986
I166
sS'10455G'
p1987
I166
sS'8278.XC'
p1988
I165
sS'3906C'
p1989
I166
sS'3010A'
p1990
I153
sS'3906A'
p1991
I166
sS'5130C'
p1992
I166
sS'8604C'
p1993
I166
sS'4748T'
p1994
I166
sS'9362G'
p1995
I166
sS'9647C'
p1996
I164
sS'12236A'
p1997
I162
sS'7891T'
p1998
I165
sS'16355T'
p1999
I148
sS'10966C'
p2000
I165
sS'15025T'
p2001
I165
sS'13401C'
p2002
I165
sS'7406T'
p2003
I166
sS'191.1A'
p2004
I165
sS'9587G'
p2005
I166
sS'11143T'
p2006
I163
sS'12715G'
p2007
I166
sS'14374C'
p2008
I166
sS'13129T'
p2009
I165
sS'6515C'
p2010
I165
sS'11041A'
p2011
I165
sS'12561A'
p2012
I164
sS'8284d'
p2013
I152
sS'15773A'
p2014
I166
sS'14128G'
p2015
I164
sS'7433T'
p2016
I166
sS'10530C'
p2017
I166
sS'4928C'
p2018
I164
sS'14182A'
p2019
I166
sS'14839G'
p2020
I165
sS'14182C'
p2021
I159
sS'8005C'
p2022
I164
sS'9438A'
p2023
I158
sS'72C'
p2024
I166
sS'5951G'
p2025
I165
sS'3672G'
p2026
I166
sS'8502G'
p2027
I166
sS'9368G'
p2028
I166
sS'184A'
p2029
I166
sS'316A'
p2030
I163
sS'13932T'
p2031
I166
sS'4960T'
p2032
I166
sS'12469G'
p2033
I165
sS'12432T'
p2034
I164
sS'71d'
p2035
I166
sS'3984T'
p2036
I166
sS'5252A'
p2037
I165
sS'12510T'
p2038
I166
sS'2120A'
p2039
I166
sS'10632C'
p2040
I165
sS'4654T'
p2041
I165
sS'15352G'
p2042
I166
sS'15325G'
p2043
I166
sS'15325C'
p2044
I166
sS'14902T'
p2045
I166
sS'225A!'
p2046
I164
sS'10142T'
p2047
I165
sS'6018A'
p2048
I166
sS'8158G'
p2049
I166
sS'15901G'
p2050
I166
sS'4242T'
p2051
I166
sS'455d'
p2052
I166
sS'9770C'
p2053
I166
sS'5775C'
p2054
I166
sS'6548T'
p2055
I166
sS'9344T'
p2056
I166
sS'8283d'
p2057
I152
sS'14162A'
p2058
I165
sS'8158T'
p2059
I166
sS'15307T'
p2060
I166
sS'6185C'
p2061
I163
sS'5979A'
p2062
I165
sS'12133T'
p2063
I165
sS'7424G'
p2064
I162
sS'10955T'
p2065
I165
sS'4904T'
p2066
I165
sS'6050C'
p2067
I166
sS'15697C'
p2068
I165
sS'15067C'
p2069
I164
sS'10454C'
p2070
I159
sS'9094T'
p2071
I165
sS'1342T'
p2072
I166
sS'5711G'
p2073
I166
sS'2483C'
p2074
I164
sS'7533T'
p2075
I165
sS'9016G'
p2076
I166
sS'808T'
p2077
I166
sS'14209G'
p2078
I166
sS'10265C'
p2079
I166
sS'8149G'
p2080
I162
sS'15757G'
p2081
I166
sS'16359C'
p2082
I165
sS'13834G'
p2083
I165
sS'7669T'
p2084
I166
sS'13359A'
p2085
I159
sS'750G'
p2086
I166
sS'5432G'
p2087
I166
sS'12073T'
p2088
I166
sS'15777C'
p2089
I165
sS'15777A'
p2090
I165
sS'4011T'
p2091
I164
sS'14370G'
p2092
I166
sS'472G'
p2093
I166
sS'16366T'
p2094
I165
sS'15631G'
p2095
I166
sS'3738T'
p2096
I164
sS'16157C'
p2097
I166
sS'15983C'
p2098
I166
sS'7112T'
p2099
I166
sS'3335C'
p2100
I165
sS'4104G'
p2101
I166
sS'2000T'
p2102
I166
sS'16000T'
p2103
I166
sS'3360G'
p2104
I166
sS'12246T'
p2105
I165
sS'4454A'
p2106
I166
sS'4454C'
p2107
I162
sS'10523G'
p2108
I166
sS'8419C'
p2109
I164
sS'15849T'
p2110
I166
sS'4824G'
p2111
I165
sS'16304G'
p2112
I166
sS'13869C'
p2113
I166
sS'16304C'
p2114
I147
sS'13812C'
p2115
I166
sS'8047C'
p2116
I164
sS'14864C'
p2117
I166
sS'12082G'
p2118
I166
sS'13599T'
p2119
I166
sS'8340A'
p2120
I166
sS'16368C'
p2121
I157
sS'12268C'
p2122
I166
sS'9036T'
p2123
I166
sS'261T'
p2124
I166
sS'13089C'
p2125
I166
sS'15865G'
p2126
I166
sS'5321T'
p2127
I166
sS'8724G'
p2128
I166
sS'12308G!'
p2129
I166
sS'329A'
p2130
I166
sS'8575T'
p2131
I166
sS'3741T'
p2132
I166
sS'5263T'
p2133
I159
sS'4926T'
p2134
I166
sS'1002T'
p2135
I166
sS'12465T'
p2136
I166
sS'15223T'
p2137
I165
sS'12106T'
p2138
I166
sS'14989T'
p2139
I165
sS'4024G'
p2140
I165
sS'15016T'
p2141
I166
sS'16175T'
p2142
I166
sS'13734C'
p2143
I166
sS'3447G'
p2144
I165
sS'7930G'
p2145
I166
sS'12616C'
p2146
I165
sS'11128G'
p2147
I166
sS'16175G'
p2148
I166
sS'16288C'
p2149
I157
sS'7930T'
p2150
I166
sS'7978T'
p2151
I166
sS'431T'
p2152
I166
sS'15497A'
p2153
I162
sS'10653A'
p2154
I166
sS'9254G'
p2155
I153
sS'10793T'
p2156
I166
sS'10700G'
p2157
I163
sS'13650T'
p2158
I165
sS'61T'
p2159
I165
sS'10589A'
p2160
I163
sS'431A'
p2161
I166
sS'6953G'
p2162
I166
sS'4048A'
p2163
I161
sS'14305A'
p2164
I158
sS'535T'
p2165
I166
sS'16346C'
p2166
I166
sS'9097G'
p2167
I166
sS'4080C'
p2168
I163
sS'15257A'
p2169
I164
sS'14757C'
p2170
I166
sS'8706G'
p2171
I165
sS'3594T'
p2172
I166
sS'14227T'
p2173
I166
sS'12379T'
p2174
I166
sS'9114G'
p2175
I166
sS'12975G'
p2176
I166
sS'16017C'
p2177
I162
sS'15622C'
p2178
I165
sS'8659G'
p2179
I163
sS'16272G'
p2180
I164
sS'11221G'
p2181
I166
sS'6869T'
p2182
I166
sS'6704G'
p2183
I166
sS'13035T'
p2184
I166
sS'8580T'
p2185
I166
sS'8098G'
p2186
I166
sS'12331G'
p2187
I166
sS'294C'
p2188
I166
sS'6060G'
p2189
I166
sS'294A'
p2190
I166
sS'16295T'
p2191
I154
sS'8440G'
p2192
I162
sS'105d'
p2193
I166
sS'8155A'
p2194
I160
sS'13890T'
p2195
I166
sS'15978T'
p2196
I166
sS'3549T'
p2197
I166
sS'6719C'
p2198
I163
sS'12756A'
p2199
I166
sS'12804C'
p2200
I165
sS'3565G'
p2201
I164
sS'384G'
p2202
I165
sS'13886C'
p2203
I166
sS'15944.1T'
p2204
I166
sS'2251G'
p2205
I166
sS'14800T'
p2206
I164
sS'5198G'
p2207
I166
sS'11963A'
p2208
I166
sS'11963C'
p2209
I166
sS'990C'
p2210
I165
sS'569T'
p2211
I166
sS'11008T'
p2212
I166
sS'15713G'
p2213
I166
sS'3654T'
p2214
I166
sS'16136C'
p2215
I160
sS'16391A'
p2216
I164
sS'9698C'
p2217
I165
sS'14560A'
p2218
I158
sS'12741T'
p2219
I165
sS'13080T'
p2220
I166
sS'13276G!'
p2221
I166
sS'11770C'
p2222
I166
sS'7705C'
p2223
I166
sS'9083C'
p2224
I165
sS'14783C'
p2225
I165
sS'6671C'
p2226
I163
sS'3693A'
p2227
I161
sS'7118G'
p2228
I165
sS'12714C'
p2229
I164
sS'14566G'
p2230
I166
sS'2245G'
p2231
I166
sS'9136G'
p2232
I166
sS'7954C'
p2233
I166
sS'8468T'
p2234
I165
sS'12507G'
p2235
I164
sS'16214A'
p2236
I166
sS'5157T'
p2237
I166
sS'10365A'
p2238
I165
sS'14584C'
p2239
I166
sS'10969T'
p2240
I166
sS'14553T'
p2241
I165
sS'2768G'
p2242
I165
sS'93.1T'
p2243
I162
sS'1536G'
p2244
I165
sS'16150T'
p2245
I165
sS'13547T'
p2246
I166
sS'16147G'
p2247
I166
sS'13215C'
p2248
I163
sS'11269T'
p2249
I166
sS'1393A'
p2250
I164
sS'7379A'
p2251
I165
sS'14599G'
p2252
I166
sS'15812A'
p2253
I164
sS'11794C'
p2254
I166
sS'9196A'
p2255
I165
sS'14544A'
p2256
I162
sS'7967T'
p2257
I166
sS'4312T'
p2258
I166
sS'9042T'
p2259
I165
sS'16232T'
p2260
I166
sS'237G'
p2261
I166
sS'4234T'
p2262
I166
sS'5774C'
p2263
I164
sS'4640A'
p2264
I166
sS'5774A'
p2265
I166
sS'10143A'
p2266
I162
sS'12850G'
p2267
I166
sS'2706G!'
p2268
I160
sS'257G'
p2269
I163
sS'4640T'
p2270
I166
sS'4639C'
p2271
I163
sS'709A!'
p2272
I165
sS'13953C'
p2273
I166
sS'9773T'
p2274
I166
sS'8393T'
p2275
I166
sS'721C'
p2276
I164
sS'15670C'
p2277
I158
sS'13015C'
p2278
I164
sS'153G!'
p2279
I161
sS'228T'
p2280
I166
sS'9851T'
p2281
I166
sS'16212G'
p2282
I165
sS'4924C'
p2283
I166
sS'4907C'
p2284
I165
sS'9012G'
p2285
I166
sS'8406T'
p2286
I166
sS'7804G'
p2287
I166
sS'15379T'
p2288
I166
sS'15340G'
p2289
I166
sS'6053T'
p2290
I165
sS'1375T'
p2291
I166
sS'4844G'
p2292
I166
sS'5120G'
p2293
I165
sS'16325d'
p2294
I166
sS'11476T'
p2295
I164
sS'2397T'
p2296
I166
sS'8931G'
p2297
I166
sS'13117G'
p2298
I166
sS'8113A'
p2299
I166
sS'572T'
p2300
I166
sS'12192A'
p2301
I164
sS'6131G'
p2302
I164
sS'9693T'
p2303
I166
sS'3507T'
p2304
I163
sS'3552C'
p2305
I164
sS'3552A'
p2306
I166
sS'7337A'
p2307
I154
sS'11701C'
p2308
I164
sS'11654G'
p2309
I166
sS'5507A'
p2310
I166
sS'5618C'
p2311
I166
sS'8947T'
p2312
I166
sS'4838C'
p2313
I166
sS'7070T'
p2314
I166
sS'4502C'
p2315
I166
sS'3209G'
p2316
I166
sS'73G!'
p2317
I162
sS'7543G'
p2318
I166
sS'65.1T'
p2319
I165
sS'6297C'
p2320
I160
sS'202G'
p2321
I166
sS'9077C'
p2322
I164
sS'1811G!'
p2323
I165
sS'9007T'
p2324
I166
sS'6071C'
p2325
I165
sS'11339C'
p2326
I164
sS'5480G'
p2327
I164
sS'3316A'
p2328
I158
sS'16305T'
p2329
I166
sS'5456T'
p2330
I166
sS'16261T'
p2331
I142
sS'262T'
p2332
I165
sS'5262A'
p2333
I164
sS'6635C'
p2334
I166
sS'12267G'
p2335
I166
sS'4970G'
p2336
I166
sS'6257A'
p2337
I165
sS'9899C'
p2338
I161
sS'10544T'
p2339
I166
sS'4129G'
p2340
I164
sS'16261A'
p2341
I166
sS'958T'
p2342
I166
sS'4697T'
p2343
I166
sS'10237C'
p2344
I165
sS'4851T'
p2345
I166
sS'4949G'
p2346
I166
sS'6237A'
p2347
I166
sS'8727T'
p2348
I165
sS'4363C'
p2349
I164
sS'2083C'
p2350
I164
sS'7569G'
p2351
I165
sS'5899d'
p2352
I166
sS'7268G'
p2353
I166
sS'4185T'
p2354
I166
sS'14152G'
p2355
I165
sS'16243C'
p2356
I155
sS'16218T'
p2357
I154
sS'183G'
p2358
I158
sS'9088C'
p2359
I166
sS'13933G'
p2360
I164
sS'13002A'
p2361
I166
sS'97C'
p2362
I166
sS'97A'
p2363
I166
sS'10253C'
p2364
I166
sS'9039A'
p2365
I165
sS'14129T'
p2366
I166
sS'11371G'
p2367
I166
sS'3969T'
p2368
I166
sS'7268C'
p2369
I166
sS'6040G'
p2370
I164
sS'7521A'
p2371
I158
sS'6040C'
p2372
I166
sS'214G'
p2373
I160
sS'9935C'
p2374
I166
sS'11761T'
p2375
I166
sS'4967C'
p2376
I166
sS'5046A'
p2377
I162
sS'15261A'
p2378
I166
sS'8191G'
p2379
I166
sS'1413C'
p2380
I166
sS'8176C'
p2381
I166
sS'15789T'
p2382
I165
sS'494T'
p2383
I165
sS'959T'
p2384
I166
sS'12957C'
p2385
I161
sS'7648T'
p2386
I166
sS'9383T'
p2387
I165
sS'8658T'
p2388
I166
sS'7664A'
p2389
I164
sS'6899A'
p2390
I166
sS'15596A'
p2391
I165
sS'15868T'
p2392
I166
sS'15884A'
p2393
I155
sS'15884C'
p2394
I165
sS'9117C'
p2395
I164
sS'3172A'
p2396
I166
sS'14950T'
p2397
I165
sS'745.1T'
p2398
I165
sS'12903C'
p2399
I166
sS'14034C'
p2400
I165
sS'11197T'
p2401
I165
sS'16169T'
p2402
I155
sS'7184G'
p2403
I166
sS'297G'
p2404
I165
sS'16169A'
p2405
I166
sS'4643A'
p2406
I166
sS'8504C'
p2407
I166
sS'8104C'
p2408
I165
sS'11935C'
p2409
I164
sS'15463G'
p2410
I166
sS'4745G'
p2411
I166
sS'4167T'
p2412
I166
sS'4833G!'
p2413
I165
sS'13857G'
p2414
I166
sS'8558T'
p2415
I166
sS'5892C'
p2416
I165
sS'16327A'
p2417
I165
sS'11172G'
p2418
I164
sS'8943T'
p2419
I165
sS'7837C'
p2420
I166
sS'1310T'
p2421
I164
sS'14384A'
p2422
I165
sS'6248C'
p2423
I165
sS'211G'
p2424
I164
sS'15754T'
p2425
I166
sS'5899.XC'
p2426
I157
sS'189G!'
p2427
I164
sS'1047G'
p2428
I165
sS'5366A'
p2429
I166
sS'10497T'
p2430
I165
sS'4107T'
p2431
I165
sS'10976T'
p2432
I166
sS'11380G'
p2433
I164
sS'3873G'
p2434
I166
sS'3486T'
p2435
I166
sS'13449T'
p2436
I166
sS'13470G'
p2437
I164
sS'15211T'
p2438
I164
sS'8718G'
p2439
I165
sS'5466G'
p2440
I166
sS'11253C'
p2441
I164
sS'8645G'
p2442
I166
sS'2581G'
p2443
I166
sS'16312G'
p2444
I166
sS'14552G'
p2445
I166
sS'14193G'
p2446
I166
sS'9347G'
p2447
I166
sS'9159T'
p2448
I166
sS'5081C'
p2449
I164
sS'4484T'
p2450
I166
sS'6647G'
p2451
I164
sS'14935C'
p2452
I166
sS'14025C'
p2453
I166
sS'869T'
p2454
I165
sS'11854C'
p2455
I165
sS'8026T'
p2456
I166
sS'3820T'
p2457
I166
sS'5076T'
p2458
I166
sS'16080G'
p2459
I166
sS'9248T'
p2460
I166
sS'5237A'
p2461
I160
sS'644G'
p2462
I165
sS'1243C'
p2463
I162
sS'8841T'
p2464
I166
sS'6740G'
p2465
I166
sS'2707G'
p2466
I166
sS'8756C'
p2467
I166
sS'2707C'
p2468
I164
sS'11437C'
p2469
I163
sS'482C'
p2470
I161
sS'12961G'
p2471
I166
sS'14155T'
p2472
I166
sS'131C'
p2473
I161
sS'14410A'
p2474
I166
sS'575T'
p2475
I164
sS'5096C'
p2476
I166
sS'11065G'
p2477
I163
sS'11840T'
p2478
I166
sS'11515A'
p2479
I166
sS'16242A'
p2480
I165
sS'2905G'
p2481
I166
sS'7600A'
p2482
I166
sS'7879G'
p2483
I166
sS'16174T'
p2484
I163
sS'146A'
p2485
I166
sS'14311C'
p2486
I165
sS'146C'
p2487
I74
sS'10939T'
p2488
I166
sS'7933G'
p2489
I166
sS'5843G'
p2490
I166
sS'15217A'
p2491
I161
sS'4025T'
p2492
I162
sS'12028C'
p2493
I166
sS'11077G'
p2494
I166
sS'761G'
p2495
I165
sS'11497T'
p2496
I165
sS'11137C'
p2497
I166
sS'11928G'
p2498
I165
sS'11122A'
p2499
I166
sS'8843C'
p2500
I159
sS'15496G'
p2501
I166
sS'12468C'
p2502
I164
sS'5036G'
p2503
I165
sS'255A'
p2504
I166
sS'3083C'
p2505
I166
sS'13413G'
p2506
I166
sS'4065G'
p2507
I166
sS'7226A'
p2508
I165
sS'430C'
p2509
I165
sS'4170T'
p2510
I166
sS'825A'
p2511
I166
sS'12923T'
p2512
I166
sS'204C!'
p2513
I166
sS'11557G'
p2514
I166
sS'14302C'
p2515
I165
sS'13759A'
p2516
I154
sS'479G'
p2517
I166
sS'12657C'
p2518
I166
sS'14518G'
p2519
I166
sS'8932T'
p2520
I166
sS'5118T'
p2521
I166
sS'5196C'
p2522
I165
sS'10086G'
p2523
I165
sS'14233G'
p2524
I164
sS'10031C'
p2525
I164
sS'14064T'
p2526
I166
sS'16523G'
p2527
I166
sS'7691C'
p2528
I166
sS'5174T'
p2529
I166
sS'15883A'
p2530
I162
sS'8633G'
p2531
I166
sS'597T'
p2532
I166
sS'14527G'
p2533
I166
sS'14929T'
p2534
I166
sS'16068C'
p2535
I166
sS'12405T'
p2536
I166
sS'15468T'
p2537
I166
sS'259G'
p2538
I166
sS'11653G'
p2539
I164
sS'12040G'
p2540
I166
sS'6023A'
p2541
I161
sS'3277A'
p2542
I166
sS'9293T'
p2543
I166
sS'6911C'
p2544
I166
sS'16209C'
p2545
I145
sS'11009C'
p2546
I163
sS'10320A'
p2547
I166
sS'5582G'
p2548
I165
sS'11428T'
p2549
I165
sS'16219G!'
p2550
I166
sS'16184T'
p2551
I153
sS'7022G'
p2552
I166
sS'16518T'
p2553
I166
sS'459.1C'
p2554
I166
sS'3202C'
p2555
I166
sS'8925G'
p2556
I165
sS'9055A'
p2557
I156
sS'7256T'
p2558
I164
sS'2702A!'
p2559
I166
sS'199C!'
p2560
I166
sS'2220G'
p2561
I165
sS'15674C'
p2562
I166
sS'12795A'
p2563
I165
sS'2330C'
p2564
I166
sS'394T'
p2565
I166
sS'5508C'
p2566
I165
sS'7897A'
p2567
I163
sS'9182A'
p2568
I166
sS'245C'
p2569
I166
sS'3535C'
p2570
I166
sS'7055G'
p2571
I163
sS'13056T'
p2572
I166
sS'4335T'
p2573
I166
sS'7356A'
p2574
I164
sS'11491G'
p2575
I165
sS'9852G'
p2576
I166
sS'15442G'
p2577
I165
sS'16242T'
p2578
I158
sS'8167A'
p2579
I166
sS'13934T'
p2580
I159
sS'2080C'
p2581
I166
sS'8027A'
p2582
I161
sS'4670T'
p2583
I166
sS'15851G'
p2584
I166
sS'9852T'
p2585
I166
sS'10532G'
p2586
I166
sS'10398G!'
p2587
I164
sS'5390G'
p2588
I165
sS'15292T'
p2589
I166
sS'12217G'
p2590
I166
sS'13368A!'
p2591
I166
sS'16126C!'
p2592
I165
sS'16311C'
p2593
I62
sS'16219G'
p2594
I163
sS'1711T'
p2595
I166
sS'6014C'
p2596
I166
sS'444G'
p2597
I166
sS'16294T!'
p2598
I165
sS'502T'
p2599
I166
sS'15896G'
p2600
I166
sS'9386C'
p2601
I164
sS'10463C'
p2602
I162
sS'5205C'
p2603
I166
sS'15422G'
p2604
I166
sS'14091G'
p2605
I165
sS'8292A'
p2606
I166
sS'1703T'
p2607
I166
sS'5298G'
p2608
I166
sS'8522T'
p2609
I166
sS'5240G'
p2610
I166
sS'236C'
p2611
I162
sS'15907G'
p2612
I166
sS'15820T'
p2613
I166
sS'10514G'
p2614
I166
sS'8812G'
p2615
I165
sS'4313C'
p2616
I164
sS'13563G'
p2617
I166
sS'9041G'
p2618
I166
sS'1733T'
p2619
I166
sS'13528G'
p2620
I166
sS'12483T'
p2621
I166
sS'11992C'
p2622
I166
sS'7559G'
p2623
I166
sS'8705C'
p2624
I160
sS'15070T'
p2625
I166
sS'7148C'
p2626
I165
sS'4020T'
p2627
I166
sS'5628C'
p2628
I166
sS'10088T'
p2629
I166
sS'6929G'
p2630
I165
sS'15346A'
p2631
I162
sS'2332T'
p2632
I166
sS'4712T'
p2633
I166
sS'3399T'
p2634
I166
sS'6845T'
p2635
I166
sS'3381G'
p2636
I166
sS'8577G'
p2637
I165
sS'9018C'
p2638
I166
sS'14207A'
p2639
I166
sS'7830A'
p2640
I163
sS'15654C'
p2641
I166
sS'5893T'
p2642
I166
sS'11263T'
p2643
I166
sS'16324C'
p2644
I158
sS'794A'
p2645
I166
sS'6249A'
p2646
I164
sS'12279G'
p2647
I165
sS'4722G'
p2648
I166
sS'4106T'
p2649
I166
sS'2789T'
p2650
I165
sS'6338G'
p2651
I166
sS'4853A'
p2652
I164
sS'3333T'
p2653
I166
sS'10192T'
p2654
I166
sS'13791T'
p2655
I166
sS'4381G'
p2656
I166
sS'16482G!'
p2657
I166
sS'89C'
p2658
I165
sS'11887A'
p2659
I164
sS'11383C'
p2660
I165
sS'4452C'
p2661
I165
sS'11252G'
p2662
I166
sS'7915T'
p2663
I166
sS'3172.1C'
p2664
I166
sS'12549T'
p2665
I166
sS'203A'
p2666
I164
sS'15847T'
p2667
I166
sS'8417A'
p2668
I166
sS'11365C'
p2669
I163
sS'710C'
p2670
I160
sS'7984A'
p2671
I166
sS'11626C'
p2672
I166
sS'13810A'
p2673
I165
sS'14393G'
p2674
I166
sS'5387T'
p2675
I166
sS'8417T'
p2676
I166
sS'1048T'
p2677
I164
sS'7517G'
p2678
I166
sS'511T'
p2679
I165
sS'5261A'
p2680
I163
sS'9467C'
p2681
I166
sS'10601A'
p2682
I166
sS'459d'
p2683
I166
sS'10601C'
p2684
I166
sS'10754G'
p2685
I163
sS'16260T'
p2686
I153
sS'15715G'
p2687
I166
sS'4924A'
p2688
I164
sS'10754C'
p2689
I166
sS'2145A'
p2690
I166
sS'15221A'
p2691
I165
sS'8557C'
p2692
I165
sS'14791T'
p2693
I166
sS'1706T'
p2694
I166
sS'3507A'
p2695
I166
sS'6281G'
p2696
I166
sS'263G'
p2697
I165
sS'14751T'
p2698
I166
sS'15334T'
p2699
I166
sS'15693C'
p2700
I166
sS'12948G'
p2701
I166
sS'13674C'
p2702
I165
sS'7202G'
p2703
I162
sS'11113C'
p2704
I166
sS'9276A'
p2705
I166
sS'15742A'
p2706
I166
sS'1598A'
p2707
I151
sS'14245T'
p2708
I166
sS'11470G'
p2709
I165
sS'4793G'
p2710
I165
sS'9488T'
p2711
I166
sS'15644G'
p2712
I165
sS'10682G'
p2713
I166
sS'8478T'
p2714
I166
sS'7785C'
p2715
I166
sS'15331A'
p2716
I166
sS'12375C'
p2717
I166
sS'12151G'
p2718
I166
sS'13197T'
p2719
I166
sS'15148A'
p2720
I158
sS'8966C'
p2721
I166
sS'13239T'
p2722
I166
sS'4171T'
p2723
I166
sS'5773A'
p2724
I156
sS'9129T'
p2725
I166
sS'12609C'
p2726
I165
sS'15499T'
p2727
I166
sS'8906G'
p2728
I166
sS'8437T'
p2729
I166
sS'8422G'
p2730
I166
sS'11732C'
p2731
I165
sS'13710G'
p2732
I162
sS'15885T'
p2733
I166
sS'3307.1A'
p2734
I166
sS'14221C'
p2735
I164
sS'5782C'
p2736
I166
sS'14620T'
p2737
I165
sS'8455T'
p2738
I166
sS'2380T'
p2739
I165
sS'10885C'
p2740
I166
sS'9965C'
p2741
I166
sS'4592C'
p2742
I164
sS'8704G'
p2743
I166
sS'711C'
p2744
I165
sS'296T'
p2745
I166
sS'7085C'
p2746
I166
sS'9116C'
p2747
I166
sS'4071T'
p2748
I166
sS'11536T'
p2749
I166
sS'7158G'
p2750
I164
sS'8582T'
p2751
I166
sS'5964C'
p2752
I163
sS'3729G'
p2753
I166
sS'1119C'
p2754
I166
sS'7768G'
p2755
I166
sS'14341T'
p2756
I166
sS'7852A'
p2757
I166
sS'10874T'
p2758
I166
sS'9288G'
p2759
I166
sS'16189C!'
p2760
I164
sS'178G'
p2761
I166
sS'16270T!'
p2762
I166
sS'742C'
p2763
I166
sS'1187C'
p2764
I166
sS'15099C'
p2765
I166
sS'10321C'
p2766
I164
sS'11965T'
p2767
I166
sS'13095C'
p2768
I166
sS'15445C'
p2769
I165
sS'6602T'
p2770
I166
sS'16354T!'
p2771
I166
sS'8200C'
p2772
I165
sS'6173T'
p2773
I165
sS'5510G'
p2774
I166
sS'5285G'
p2775
I166
sS'15326G!'
p2776
I161
sS'7277G'
p2777
I166
sS'15924G'
p2778
I141
sS'2217T'
p2779
I166
sS'862G'
p2780
I166
sS'11410C'
p2781
I166
sS'4715G'
p2782
I164
sS'2880G'
p2783
I166
sS'13293T'
p2784
I166
sS'7498A'
p2785
I165
sS'7257G'
p2786
I166
sS'7894G'
p2787
I166
sS'7750T'
p2788
I166
sS'11140T'
p2789
I166
sS'16134T'
p2790
I163
sS'10816T'
p2791
I166
sS'16069T'
p2792
I162
sS'11938T'
p2793
I165
sS'125C'
p2794
I165
sS'152C'
p2795
I1
sS'8988G'
p2796
I165
sS'14484C'
p2797
I166
sS'12771A'
p2798
I157
sS'14562T'
p2799
I166
sS'10816G'
p2800
I166
sS'12311C'
p2801
I165
sS'11852A'
p2802
I166
sS'11071T'
p2803
I166
sS'16296T'
p2804
I165
sS'13395G'
p2805
I163
sS'455.1T'
p2806
I161
sS'16129A!'
p2807
I154
sS'13743C'
p2808
I165
sS'11518A'
p2809
I165
sS'1391C'
p2810
I163
sS'813G'
p2811
I164
sS'12678C'
p2812
I166
sS'9190T'
p2813
I166
sS'2706G'
p2814
I166
sS'11521G'
p2815
I166
sS'6680C'
p2816
I161
sS'732G'
p2817
I166
sS'11024T'
p2818
I166
sS'868T'
p2819
I166
sS'8842G'
p2820
I163
sS'3894T'
p2821
I165
sS'8842C'
p2822
I166
sS'8940T'
p2823
I166
sS'12025T'
p2824
I166
sS'4343G'
p2825
I166
sS'2232.2A'
p2826
I166
sS'235G'
p2827
I161
sS'9966A!'
p2828
I166
sS'5913A'
p2829
I165
sS'14058T'
p2830
I166
sS'6285A'
p2831
I166
sS'11348T'
p2832
I166
sS'8521G'
p2833
I165
sS'5333C'
p2834
I166
sS'11084G'
p2835
I161
sS'14461C'
p2836
I166
sS'8286d'
p2837
I152
sS'6960T'
p2838
I166
sS'44.1C'
p2839
I162
sS'15418T'
p2840
I165
sS'709A'
p2841
I122
sS'14384C'
p2842
I165
sS'1618G'
p2843
I166
sS'15191C'
p2844
I165
sS'14118G'
p2845
I163
sS'11629T'
p2846
I166
sS'11710T'
p2847
I166
sS'15936T'
p2848
I166
sS'10130G'
p2849
I166
sS'8286C'
p2850
I166
sS'14959G'
p2851
I165
sS'8056G'
p2852
I166
sS'14602G'
p2853
I166
sS'8248G'
p2854
I166
sS'9329A'
p2855
I162
sS'6113G'
p2856
I166
sS'2395d'
p2857
I166
sS'8264T'
p2858
I165
sS'12049T'
p2859
I165
sS'14515C'
p2860
I166
sS'7692C'
p2861
I166
sS'5060T'
p2862
I166
sS'9305A'
p2863
I164
sS'13260C'
p2864
I164
sS'5656G'
p2865
I162
sS'9350G'
p2866
I166
sS'8632C'
p2867
I166
sS'12705T'
p2868
I166
sS'8167C'
p2869
I163
sS'5527G'
p2870
I166
sS'7702A'
p2871
I166
sS'3203G'
p2872
I164
sS'8875C'
p2873
I166
sS'14524G'
p2874
I166
sS'13942G'
p2875
I166
sS'6959T'
p2876
I166
sS'8279C'
p2877
I166
sS'9290A'
p2878
I166
sS'9989C'
p2879
I166
sS'15469G'
p2880
I166
sS'3140G'
p2881
I165
sS'200G'
p2882
I144
sS'5486T'
p2883
I166
sS'16207G'
p2884
I163
sS'14392T'
p2885
I166
sS'4659A'
p2886
I166
sS'14669G'
p2887
I166
sS'10559G'
p2888
I166
sS'3847C'
p2889
I164
sS'16207T'
p2890
I166
sS'458T'
p2891
I165
sS'5246A'
p2892
I166
sS'1415A'
p2893
I164
sS'15844G'
p2894
I166
sS'12092A'
p2895
I164
sS'2294G'
p2896
I166
sS'516T'
p2897
I166
sS'3744G'
p2898
I165
sS'921C'
p2899
I166
sS'264T'
p2900
I165
sS'5498G'
p2901
I164
sS'8409T'
p2902
I166
sS'1007A'
p2903
I165
sS'3688C'
p2904
I166
sS'8554G'
p2905
I166
sS'14974T'
p2906
I166
sS'16240G'
p2907
I161
sS'7250G'
p2908
I166
sS'9948A'
p2909
I165
sS'4209C'
p2910
I165
sS'469T'
p2911
I166
sS'16245T'
p2912
I163
sS'16229C'
p2913
I166
sS'1721T'
p2914
I166
sS'10310A'
p2915
I162
sS'5817T'
p2916
I166
sS'4225G'
p2917
I165
sS'15850C'
p2918
I166
sS'4117C'
p2919
I164
sS'10286G'
p2920
I166
sS'95C'
p2921
I164
sS'11017C'
p2922
I164
sS'15259T'
p2923
I166
sS'5601T'
p2924
I165
sS'10631T'
p2925
I166
sS'793T'
p2926
I166
sS'373G'
p2927
I162
sS'189G'
p2928
I138
sS'9903C'
p2929
I165
sS'14674C'
p2930
I166
sS'2092T'
p2931
I166
sS'14198A'
p2932
I166
sS'1710C'
p2933
I166
sS'12127A'
p2934
I161
sS'6245G'
p2935
I166
sS'4965G'
p2936
I166
sS'16144C'
p2937
I164
sS'13928C'
p2938
I158
sS'9822A'
p2939
I166
sS'13928A'
p2940
I166
sS'3987G'
p2941
I166
sS'13711A'
p2942
I165
sS'8860G!'
p2943
I166
sS'8454G'
p2944
I166
sS'7146G'
p2945
I166
sS'15763G'
p2946
I166
sS'14956C'
p2947
I165
sS'3816G'
p2948
I165
sS'14220G'
p2949
I166
sS'14287C'
p2950
I166
sS'10775A'
p2951
I166
sS'16356C!'
p2952
I166
sS'16463G'
p2953
I162
sS'291d'
p2954
I166
sS'4038G'
p2955
I166
sS'15388C'
p2956
I166
sS'9374G'
p2957
I166
sS'6351C'
p2958
I165
sS'5783A'
p2959
I166
sS'3105G'
p2960
I163
sS'10211T'
p2961
I165
sS'9111C'
p2962
I165
sS'291T'
p2963
I166
sS'12406A'
p2964
I157
sS'8093C'
p2965
I165
sS'11299C'
p2966
I162
sS'16240C'
p2967
I164
sS'3392C'
p2968
I166
sS'13276G'
p2969
I166
sS'5082C'
p2970
I163
sS'10694G'
p2971
I165
sS'2156.1A'
p2972
I162
sS'7853A'
p2973
I160
sS'10819G'
p2974
I164
sS'106d'
p2975
I164
sS'7100G'
p2976
I166
sS'260A'
p2977
I164
sS'3606G'
p2978
I166
sS'7278C'
p2979
I166
sS'5426C'
p2980
I162
sS'3759G'
p2981
I166
sS'11260C'
p2982
I165
sS'16325C'
p2983
I148
sS'3666A'
p2984
I162
sS'6842C'
p2985
I166
sS'5324T'
p2986
I166
sS'13855T'
p2987
I166
sS'9614G'
p2988
I166
sS'8578T'
p2989
I166
sS'12175C'
p2990
I166
sS'1185T'
p2991
I166
sS'8383C'
p2992
I163
sS'2389T'
p2993
I166
sS'13338T'
p2994
I166
sS'11335T'
p2995
I166
sS'16270T'
p2996
I156
sS'2404C'
p2997
I165
sS'3480G'
p2998
I165
sS'5348T'
p2999
I165
sS'15632A'
p3000
I166
sS'16365T'
p3001
I166
sS'8664G'
p3002
I166
sS'4580A'
p3003
I165
sS'4763T'
p3004
I166
sS'10899G'
p3005
I166
sS'10768G'
p3006
I166
sS'11884G'
p3007
I166
sS'4101C'
p3008
I166
sS'5460A'
p3009
I140
sS'5459T'
p3010
I166
sS'15632T'
p3011
I165
sS'153G'
p3012
I157
sS'770T'
p3013
I166
sS'14405G'
p3014
I166
sS'5074C'
p3015
I166
sS'3826C'
p3016
I163
sS'16327T'
p3017
I161
sS'2849A'
p3018
I166
sS'11087C'
p3019
I165
sS'10344G'
p3020
I166
sS'6665T'
p3021
I166
sS'606G'
p3022
I166
sS'15737A'
p3023
I166
sS'64T'
p3024
I152
sS'9797C'
p3025
I166
sS'8614C'
p3026
I162
sS'14587G'
p3027
I158
sS'1810G'
p3028
I166
sS'15097C'
p3029
I165
sS'16075C'
p3030
I162
sS'309d'
p3031
I165
sS'12634G'
p3032
I165
sS'16192T!'
p3033
I155
sS'7376T'
p3034
I166
sS'11251G'
p3035
I166
sS'4709T'
p3036
I166
sS'13742T'
p3037
I166
sS'151T!'
p3038
I165
sS'10736T'
p3039
I166
sS'6806G'
p3040
I164
sS'15119A'
p3041
I164
sS'3411G'
p3042
I166
sS'16470A'
p3043
I166
sS'338T'
p3044
I164
sS'12930T'
p3045
I166
sS'10676T'
p3046
I166
sS'16390A'
p3047
I139
sS'368.1AGAA'
p3048
I166
sS'4113A'
p3049
I164
sS'6491T'
p3050
I166
sS'16063C'
p3051
I166
sS'12930G'
p3052
I166
sS'59d'
p3053
I166
sS'16172C'
p3054
I125
sS'8649G'
p3055
I166
sS'12615G'
p3056
I166
sS'12234G'
p3057
I162
sS'11659T'
p3058
I166
sS'14683G'
p3059
I165
sS'4172A'
p3060
I166
sS'15824G'
p3061
I166
sS'107d'
p3062
I164
sS'15658T'
p3063
I165
sS'282C'
p3064
I165
sS'108G'
p3065
I166
sS'59C'
p3066
I166
sS'10828C'
p3067
I166
sS'8596G'
p3068
I166
sS'12978G'
p3069
I166
sS'6638C'
p3070
I166
sS'6770G'
p3071
I166
sS'5603T'
p3072
I166
sS'11551G'
p3073
I166
sS'14890G'
p3074
I165
sS'5063C'
p3075
I165
sS'8869G'
p3076
I166
sS'8230T'
p3077
I166
sS'6528T'
p3078
I164
sS'15535T'
p3079
I166
sS'7693T'
p3080
I166
sS'12031A'
p3081
I166
sS'8934T'
p3082
I166
sS'15475G'
p3083
I166
sS'9078C'
p3084
I165
sS'11989G'
p3085
I166
sS'91T'
p3086
I166
sS'12026G'
p3087
I163
sS'16381C'
p3088
I162
sS'7249T'
p3089
I166
sS'8631G'
p3090
I166
sS'4221T'
p3091
I166
sS'16124C'
p3092
I160
sS'185C'
p3093
I166
sS'14996A'
p3094
I166
sS'12462A'
p3095
I166
sS'385G'
p3096
I163
sS'6156T'
p3097
I166
sS'3645C'
p3098
I165
sS'7343G'
p3099
I166
sS'14299C'
p3100
I166
sS'11083G'
p3101
I166
sS'10159T'
p3102
I166
sS'7419A'
p3103
I165
sS'11029G'
p3104
I166
sS'8784T'
p3105
I166
sS'10658G'
p3106
I165
sS'12633A'
p3107
I166
sS'13149G'
p3108
I165
sS'4959A'
p3109
I162
sS'7316A'
p3110
I166
sS'15110A'
p3111
I159
sS'10586A'
p3112
I163
sS'8784G'
p3113
I165
sS'15145T'
p3114
I166
sS'12633T'
p3115
I165
sS'5539G'
p3116
I165
sS'3573A'
p3117
I166
sS'1524G'
p3118
I166
sS'13626T'
p3119
I166
sS'16244A'
p3120
I166
sS'8950A'
p3121
I164
sS'7684C'
p3122
I166
sS'16330C'
p3123
I166
sS'4736C'
p3124
I165
sS'10915C'
p3125
I158
sS'11147C'
p3126
I166
sS'14002G'
p3127
I164
sS'15927A'
p3128
I160
sS'12793C'
p3129
I165
sS'12768G'
p3130
I166
sS'9180G'
p3131
I163
sS'14323A'
p3132
I158
sS'14001G'
p3133
I166
sS'13183G'
p3134
I166
sS'12642G'
p3135
I165
sS'789C'
p3136
I164
sS'14194T'
p3137
I166
sS'7258C'
p3138
I166
sS'15440C'
p3139
I164
sS'15853T'
p3140
I166
sS'9336G'
p3141
I165
sS'15520G'
p3142
I166
sS'103A!'
p3143
I165
sS'5090C'
p3144
I166
sS'12822G'
p3145
I166
sS'212C'
p3146
I165
sS'8537G'
p3147
I166
sS'14167T'
p3148
I166
sS'8130T'
p3149
I166
sS'9722C'
p3150
I166
sS'94A'
p3151
I162
sS'16186T'
p3152
I164
sS'12879C'
p3153
I163
sS'11827C'
p3154
I165
sS'4964T'
p3155
I165
sS'6446T'
p3156
I166
sS'1766C'
p3157
I166
sS'4674G'
p3158
I166
sS'16172C!'
p3159
I165
sS'9932A'
p3160
I157
sS'16077T'
p3161
I166
sS'14311G'
p3162
I166
sS'6446A'
p3163
I163
sS'466C'
p3164
I165
sS'719A'
p3165
I165
sS'2179G'
p3166
I166
sS'4616T'
p3167
I166
sS'9448G'
p3168
I166
sS'5557C'
p3169
I164
sS'10750G'
p3170
I162
sS'3275G'
p3171
I166
sS'16188T'
p3172
I162
sS'12882T'
p3173
I164
sS'14284T'
p3174
I163
sS'14137T'
p3175
I166
sS'8227C'
p3176
I165
sS'14020C'
p3177
I166
sS'489C'
p3178
I165
sS'234G'
p3179
I156
sS'7771G'
p3180
I165
sS'6473T'
p3181
I165
sS'12403T'
p3182
I166
sS'15905C'
p3183
I165
sS'16188G'
p3184
I166
sS'9000G'
p3185
I166
sS'8287d'
p3186
I152
sS'11941G'
p3187
I166
sS'12092T'
p3188
I166
sS'15043A'
p3189
I161
sS'6464T'
p3190
I166
sS'8269A'
p3191
I159
sS'16301T!'
p3192
I166
sS'3999C'
p3193
I166
sS'188G'
p3194
I163
sS'9656C'
p3195
I165
sS'13194A'
p3196
I160
sS'6464A'
p3197
I166
sS'12414C'
p3198
I161
sS'154C'
p3199
I166
sS'3766C'
p3200
I165
sS'13371T'
p3201
I166
sS'14857C'
p3202
I166
sS'5492C'
p3203
I160
sS'9938C'
p3204
I164
sS'10610T'
p3205
I166
sS'11218T'
p3206
I166
sS'9881C'
p3207
I166
sS'293C'
p3208
I166
sS'8433C'
p3209
I166
sS'3705A'
p3210
I160
sS'12091C'
p3211
I166
sS'10547T'
p3212
I166
sS'15314A'
p3213
I160
sS'3669G'
p3214
I166
sS'12142G'
p3215
I166
sS'12976T'
p3216
I166
sS'4505T'
p3217
I166
sS'3483A'
p3218
I164
sS'13147T'
p3219
I166
sS'3348G'
p3220
I166
sS'5270T'
p3221
I166
sS'66T'
p3222
I166
sS'12662G'
p3223
I165
sS'227G'
p3224
I165
sS'6272G'
p3225
I164
sS'15258G'
p3226
I166
sS'16153A'
p3227
I156
sS'10861C'
p3228
I166
sS'4512A'
p3229
I166
sS'11872T'
p3230
I166
sS'9140T'
p3231
I166
sS'4883T'
p3232
I165
sS'12864C'
p3233
I163
sS'15793T'
p3234
I166
sS'10247G'
p3235
I166
sS'6401G'
p3236
I166
sS'16206C'
p3237
I166
sS'9128C'
p3238
I163
sS'143A!'
p3239
I166
sS'2218T'
p3240
I166
sS'14115T'
p3241
I166
sS'16300G'
p3242
I156
sS'12831T'
p3243
I166
sS'14179G'
p3244
I166
sS'4260T'
p3245
I166
sS'10227C'
p3246
I166
sS'11150A'
p3247
I163
sS'3618C'
p3248
I166
sS'6092C'
p3249
I165
sS'517T'
p3250
I166
sS'3745A'
p3251
I166
sS'5267C'
p3252
I166
sS'13880A'
p3253
I166
sS'16266T'
p3254
I150
sS'6383A'
p3255
I165
sS'3170A'
p3256
I166
sS'5744A'
p3257
I164
sS'4973C'
p3258
I165
sS'265C'
p3259
I166
sS'9469T'
p3260
I166
sS'9545G'
p3261
I159
sS'16266G'
p3262
I166
sS'5813G'
p3263
I166
sS'3423A'
p3264
I166
sS'4742C'
p3265
I164
sS'3423C'
p3266
I166
sS'7094C'
p3267
I166
sS'7805A'
p3268
I159
sS'15646T'
p3269
I165
sS'15691G'
p3270
I166
sS'16471A'
p3271
I166
sS'15799G'
p3272
I164
sS'13506T'
p3273
I165
sS'8715C'
p3274
I165
sS'143A'
p3275
I146
sS'1472A'
p3276
I166
sS'6488C'
p3277
I166
sS'12235C'
p3278
I165
sS'9174C'
p3279
I166
sS'9103C'
p3280
I166
sS'3975T'
p3281
I166
sS'8964T'
p3282
I165
sS'13725T'
p3283
I166
sS'16171G'
p3284
I166
sS'1299G'
p3285
I166
sS'16284G'
p3286
I157
sS'3783A'
p3287
I166
sS'5414G'
p3288
I166
sS'10936T'
p3289
I166
sS'7861C'
p3290
I162
sS'8597C'
p3291
I166
sS'13770A'
p3292
I166
sS'15784C'
p3293
I157
sS'4342G'
p3294
I166
sS'12438C'
p3295
I164
sS'6905G'
p3296
I164
sS'3434G'
p3297
I164
sS'92A!'
p3298
I166
sS'14706G'
p3299
I166
sS'1824C'
p3300
I166
sS'8420G'
p3301
I166
sS'7661T'
p3302
I166
sS'9512T'
p3303
I165
sS'3867T'
p3304
I165
sS'13101C'
p3305
I165
sS'2780T'
p3306
I166
sS'7843G'
p3307
I165
sS'8702T'
p3308
I165
sS'10304C'
p3309
I166
sS'5839T'
p3310
I166
sS'6323G'
p3311
I166
sS'7912A'
p3312
I163
sS'290d'
p3313
I166
sS'11932T'
p3314
I166
sS'9110C'
p3315
I165
sS'16353T'
p3316
I165
sS'2351C'
p3317
I166
sS'5824A'
p3318
I166
sS'13308G'
p3319
I165
sS'9527T'
p3320
I166
sS'1461G'
p3321
I166
sS'16140C'
p3322
I157
sS'5165T'
p3323
I165
sS'4418C'
p3324
I166
sS'66A'
p3325
I165
sS'15626T'
p3326
I165
sS'4164G'
p3327
I164
sS'8679G'
p3328
I165
sS'11569C'
p3329
I165
sS'16231C'
p3330
I163
sS'7235A'
p3331
I166
sS'3832A'
p3332
I166
sS'8938G'
p3333
I166
sS'11059T'
p3334
I166
sS'15946T'
p3335
I166
sS'2442C'
p3336
I165
sS'15453C'
p3337
I166
sS'740A'
p3338
I166
sS'11542T'
p3339
I166
sS'12501A'
p3340
I159
sS'15510G'
p3341
I166
sS'10398G'
p3342
I154
sS'9824C'
p3343
I166
sS'16092A'
p3344
I166
sS'16092C'
p3345
I153
sS'8206A'
p3346
I164
sS'16286G'
p3347
I165
sS'10914A'
p3348
I166
sS'14052T'
p3349
I166
sS'3456C'
p3350
I166
sS'5372G'
p3351
I166
sS'11050C'
p3352
I163
sS'152C!'
p3353
I152
sS'8859T'
p3354
I166
sS'8754T'
p3355
I166
sS'9181G'
p3356
I164
sS'15805G'
p3357
I165
sS'11146T'
p3358
I166
sS'10697T'
p3359
I166
sS'150G'
p3360
I166
sS'11164G'
p3361
I166
sS'2831A'
p3362
I165
sS'1804G'
p3363
I165
sS'7927G'
p3364
I166
sS'5899.1C!'
p3365
I166
sS'2315G'
p3366
I166
sS'11482C'
p3367
I165
sS'16166C'
p3368
I164
sS'10345C'
p3369
I164
sS'14404T'
p3370
I166
sS'150T'
p3371
I105
sS'16166G'
p3372
I162
sS'9210G'
p3373
I165
sS'4739T'
p3374
I165
sS'13145A!'
p3375
I166
sS'7927T'
p3376
I166
sS'2831T'
p3377
I166
sS'14766T'
p3378
I166
sS'1811G'
p3379
I163
sS'65d'
p3380
I166
sS'6722A'
p3381
I163
sS'15452A'
p3382
I166
sS'13741G'
p3383
I166
sS'5153G'
p3384
I165
sS'6653T'
p3385
I166
sS'14062G'
p3386
I166
sS'2308G'
p3387
I164
sS'1541C'
p3388
I166
sS'12618A'
p3389
I160
sS'2355G'
p3390
I166
sS'16166d'
p3391
I164
sS'13981T'
p3392
I166
sS'198T!'
p3393
I164
sS'8065A'
p3394
I165
sS'14696G'
p3395
I166
sS'9269T'
p3396
I166
sS'6026A'
p3397
I161
sS'8496C'
p3398
I166
sS'11810T'
p3399
I166
sS'4131G'
p3400
I165
sS'12007A'
p3401
I154
sS'6962T'
p3402
I166
sS'15904T'
p3403
I166
sS'2735A'
p3404
I166
sS'9617G'
p3405
I166
sS'8769G'
p3406
I166
sS'6962A'
p3407
I161
sS'55.1T'
p3408
I165
sS'10679G'
p3409
I164
sS'471C'
p3410
I161
sS'16189C'
p3411
I75
sS'10631A'
p3412
I166
sS'16189A'
p3413
I165
sS'15908C'
p3414
I164
sS'9777A'
p3415
I166
sS'12397G'
p3416
I158
sS'15040T'
p3417
I163
sS'6570T'
p3418
I166
sS'8179G'
p3419
I165
sS'15193G'
p3420
I166
sS'6531T'
p3421
I166
sS'1677T'
p3422
I165
sS'15300C'
p3423
I165
sS'9309C'
p3424
I166
sS'9708C'
p3425
I165
sS'7581C'
p3426
I163
sS'7353G'
p3427
I166
sS'3912G'
p3428
I166
sS'5108C'
p3429
I159
sS'16275G'
p3430
I166
sS'9327G'
p3431
I166
sS'10903T'
p3432
I166
sS'9635C'
p3433
I166
sS'5124A'
p3434
I166
sS'10034C'
p3435
I164
sS'15088T'
p3436
I166
sS'3817T'
p3437
I165
sS'8794T'
p3438
I166
sS'4370C'
p3439
I166
sS'13113G'
p3440
I166
sS'4721G'
p3441
I166
sS'8877C'
p3442
I165
sS'14016A'
p3443
I159
sS'186T'
p3444
I165
sS'14431C'
p3445
I166
sS'455.2T'
p3446
I166
sS'11002G'
p3447
I159
sS'6563T'
p3448
I166
sS'15184C'
p3449
I164
sS'11944C'
p3450
I160
sS'7340A'
p3451
I165
sS'12711G'
p3452
I166
sS'13780G'
p3453
I166
sS'3221G'
p3454
I164
sS'7476T'
p3455
I166
sS'15328G'
p3456
I166
sS'11560G'
p3457
I164
sS'14632T'
p3458
I166
sS'14094C'
p3459
I164
sS'3334G'
p3460
I166
sS'279C'
p3461
I164
sS'12171G'
p3462
I164
sS'8541A'
p3463
I166
sS'8512G'
p3464
I165
sS'13281C'
p3465
I162
sS'8508G'
p3466
I166
sS'14041T'
p3467
I166
sS'11321G'
p3468
I166
sS'5300T'
p3469
I164
sS'13862G'
p3470
I166
sS'16201T'
p3471
I166
sS'4958G'
p3472
I165
sS'739T'
p3473
I165
sS'6002G'
p3474
I166
sS'15317A'
p3475
I164
sS'6407C'
p3476
I165
sS'12477C'
p3477
I161
sS'13452T'
p3478
I166
sS'3158.1T'
p3479
I166
sS'9287A'
p3480
I166
sS'12085T'
p3481
I166
sS'6253C'
p3482
I163
sS'11359G'
p3483
I166
sS'340T'
p3484
I165
sS'11708G'
p3485
I166
sS'246C'
p3486
I165
sS'8552C'
p3487
I166
sS'315.1C'
p3488
I166
sS'13452A'
p3489
I166
sS'10196T'
p3490
I166
sS'8723A'
p3491
I164
sS'8251A'
p3492
I148
sS'6077T'
p3493
I166
sS'13512G'
p3494
I166
sS'13917G'
p3495
I166
sS'467T'
p3496
I166
sS'16227C'
p3497
I166
sS'10506G'
p3498
I166
sS'9986A'
p3499
I165
sS'8284T'
p3500
I166
sS'9677T'
p3501
I166
sS'9051G'
p3502
I166
sS'8530G'
p3503
I166
sS'13565T'
p3504
I166
sS'248G'
p3505
I166
sS'16247G'
p3506
I166
sS'15852C'
p3507
I165
sS'11107T'
p3508
I166
sS'5752d'
p3509
I166
sS'14836G'
p3510
I166
sS'6557T'
p3511
I166
sS'9779T'
p3512
I166
sS'5186G'
p3513
I166
sS'15071C'
p3514
I166
sS'2526T'
p3515
I166
sS'10637T'
p3516
I166
sS'6371T'
p3517
I166
sS'11665T'
p3518
I166
sS'5206T'
p3519
I166
sS'3498G'
p3520
I166
sS'7570G'
p3521
I166
sS'447G'
p3522
I165
sS'60.1TT'
p3523
I166
sS'5186T'
p3524
I166
sS'11665A'
p3525
I166
sS'8509T'
p3526
I166
sS'9389G'
p3527
I165
sS'9824A'
p3528
I166
sS'10654T'
p3529
I163
sS'498.1C'
p3530
I166
sS'14978G'
p3531
I164
sS'12904G'
p3532
I165
sS'7310C'
p3533
I165
sS'7046G'
p3534
I166
sS'12190G'
p3535
I166
sS'9515T'
p3536
I166
sS'9944C'
p3537
I165
sS'7660C'
p3538
I165
sS'12172G'
p3539
I159
sS'3330T'
p3540
I166
sS'10214T'
p3541
I166
sS'11257T'
p3542
I164
sS'16038G'
p3543
I166
sS'5785C'
p3544
I166
sS'16278T'
p3545
I129
sS'14259A'
p3546
I166
sS'13713T'
p3547
I166
sS'8701G'
p3548
I162
sS'4655A'
p3549
I163
sS'11215T'
p3550
I165
sS'7819A'
p3551
I166
sS'6266G'
p3552
I165
sS'1189C'
p3553
I165
sS'12063T'
p3554
I166
sS'2259T'
p3555
I166
sS'16352C'
p3556
I163
sS'9968T'
p3557
I166
sS'13350G'
p3558
I166
sS'7040C'
p3559
I166
sS'3852T'
p3560
I165
sS'16265G'
p3561
I159
sS'4002C'
p3562
I166
sS'266C'
p3563
I166
sS'13419G'
p3564
I166
sS'978G'
p3565
I166
sS'12017G'
p3566
I166
sS'509T'
p3567
I166
sS'2098A'
p3568
I166
sS'16265T'
p3569
I166
sS'16178C'
p3570
I165
sS'9548A'
p3571
I160
sS'16187T!'
p3572
I162
sS'896G'
p3573
I166
sS'3702G'
p3574
I166
sS'5493C'
p3575
I165
sS'7124G'
p3576
I166
sS'2069C'
p3577
I166
sS'357G'
p3578
I166
sS'13802T'
p3579
I166
sS'194T!'
p3580
I165
sS'6815C'
p3581
I161
sS'12535T'
p3582
I166
sS'13590A'
p3583
I158
sS'12542T'
p3584
I165
sS'6299G'
p3585
I166
sS'12519C'
p3586
I163
sS'13182C'
p3587
I166
sS'10897T'
p3588
I166
sS'5987T'
p3589
I166
sS'6228T'
p3590
I166
sS'11368C'
p3591
I165
sS'3699G'
p3592
I166
sS'2158C'
p3593
I165
sS'930C'
p3594
I166
sS'10181T'
p3595
I166
sS'8563G'
p3596
I163
sS'15262C'
p3597
I164
sS'16494T'
p3598
I166
sS'4936T'
p3599
I166
sS'11337G'
p3600
I165
sS'8450C'
p3601
I166
sS'7193C'
p3602
I166
sS'8676T'
p3603
I166
sS'9148C'
p3604
I165
sS'7229T'
p3605
I166
sS'14357G'
p3606
I166
sS'15601C'
p3607
I165
sS'11167G'
p3608
I162
sS'8463G'
p3609
I166
sS'8733C'
p3610
I166
sS'47A'
p3611
I166
sS'1442A'
p3612
I160
sS'14407T'
p3613
I165
sS'151T'
p3614
I139
sS'8768T'
p3615
I166
sS'8414T'
p3616
I166
sS'15172A'
p3617
I158
sS'15860G'
p3618
I166
sS'8616A'
p3619
I166
sS'2763C'
p3620
I166
sS'13398G'
p3621
I165
sS'8974G'
p3622
I166
sS'10348C'
p3623
I166
sS'6683T'
p3624
I166
sS'14337T'
p3625
I166
sS'7729G'
p3626
I166
sS'14767C'
p3627
I166
sS'6167C'
p3628
I165
sS'2352C'
p3629
I161
sS'8616T'
p3630
I166
sS'3588T'
p3631
I164
sS'4050T'
p3632
I166
sS'15682G'
p3633
I166
sS'3528T'
p3634
I166
sS'13762G'
p3635
I166
sS'14000A'
p3636
I164
sS'3027C'
p3637
I159
sS'3438A'
p3638
I159
sS'16271C'
p3639
I158
sS'14315T'
p3640
I166
sS'7673G'
p3641
I165
sS'8276.1C'
p3642
I166
sS'4796T'
p3643
I166
sS'3879G'
p3644
I166
sS'11288T'
p3645
I166
sS'15647T'
p3646
I166
sS'16428A'
p3647
I166
sS'4029A'
p3648
I166
sS'16362C'
p3649
I96
sS'10499G'
p3650
I165
sS'9452A'
p3651
I166
sS'12967G'
p3652
I166
sS'263G!'
p3653
I158
sS'13074G'
p3654
I166
sS'374.1A'
p3655
I166
sS'1780C'
p3656
I166
sS'3780T'
p3657
I166
sS'16170G'
p3658
I165
sS'9503G'
p3659
I166
sS'12376G'
p3660
I166
sS'3387C'
p3661
I166
sS'13236G'
p3662
I166
sS'13884G'
p3663
I166
sS'3372C'
p3664
I166
sS'16249C'
p3665
I147
sS'16278T!'
p3666
I164
sS'10364A'
p3667
I166
sS'1872C'
p3668
I166
sS'6723A'
p3669
I166
sS'14467G'
p3670
I166
sS'7642A'
p3671
I165
sS'11908G'
p3672
I165
sS'280T'
p3673
I165
sS'9581C'
p3674
I165
sS'988A'
p3675
I166
sS'240G'
p3676
I166
sS'6116G'
p3677
I166
sS'9324G'
p3678
I166
sS'4688C'
p3679
I158
sS'398C'
p3680
I166
sS'16274A!'
p3681
I165
sS'3780T!'
p3682
I166
sS'8748T'
p3683
I165
sS'13716G'
p3684
I166
sS'5655C'
p3685
I165
sS'15103T'
p3686
I166
sS'5420C'
p3687
I166
sS'3522T'
p3688
I166
sS'11152C'
p3689
I165
sS'12684A'
p3690
I166
sS'6575G'
p3691
I166
sS'13145A'
p3692
I158
sS'8426C'
p3693
I166
sS'5911T'
p3694
I164
sS'663G'
p3695
I166
sS'16126C'
p3696
I156
sS'13110T'
p3697
I166
sS'2245C'
p3698
I166
sS'9302T'
p3699
I166
sS'6150A'
p3700
I165
sS'3535A'
p3701
I166
sS'15512C'
p3702
I166
sS'1120T'
p3703
I165
sS'9126C'
p3704
I166
sS'2358G'
p3705
I166
sS'12950G'
p3706
I164
sS'15935G'
p3707
I164
sS'12950C'
p3708
I165
sS'318C'
p3709
I162
sS'16291T!'
p3710
I166
sS'3843G'
p3711
I166
sS'4755C'
p3712
I165
sS'10373A'
p3713
I158
sS'11047A'
p3714
I166
sS'6176C'
p3715
I166
sS'7738C'
p3716
I166
sS'10308T'
p3717
I166
sS'11061T'
p3718
I164
sS'16093C'
p3719
I122
sS'7948T'
p3720
I166
sS'16042A'
p3721
I166
sS'10876G'
p3722
I165
sS'856G'
p3723
I166
sS'10993A'
p3724
I163
sS'13203G'
p3725
I166
sS'4734G'
p3726
I166
sS'5049T'
p3727
I166
sS'9186T'
p3728
I166
sS'8799G'
p3729
I166
sS'14452G'
p3730
I166
sS'185A!'
p3731
I165
sS'8594C'
p3732
I166
sS'3571T'
p3733
I166
sS'3531A'
p3734
I159
sS'6674C'
p3735
I165
sS'9192A'
p3736
I166
sS'16152C'
p3737
I166
sS'14530C'
p3738
I165
sS'13158G'
p3739
I166
sS'96T'
p3740
I166
sS'6392C'
p3741
I161
sS'12285C'
p3742
I166
sS'4204C'
p3743
I166
sS'15796C'
p3744
I166
sS'16241G!'
p3745
I166
sS'12490G'
p3746
I165
sS'225A'
p3747
I166
sS'16246T'
p3748
I165
sS'8023C'
p3749
I166
sS'735G'
p3750
I164
sS'9272T'
p3751
I166
sS'9052G'
p3752
I166
sS'464G'
p3753
I166
sS'249G'
p3754
I164
sS'10920T'
p3755
I165
sS'10097G'
p3756
I165
sS'8285d'
p3757
I152
sS'16169.1C'
p3758
I166
sS'5582C'
p3759
I166
sS'3687T'
p3760
I166
sS'14634C'
p3761
I165
sS'16239T'
p3762
I152
sS'14668T'
p3763
I164
sS'16184A'
p3764
I164
sS'5187T'
p3765
I166
sS'12188C'
p3766
I166
sS'8266G'
p3767
I166
sS'4917G'
p3768
I163
sS'26T'
p3769
I166
sS'16239A'
p3770
I166
sS'5201C'
p3771
I164
sS'9966A'
p3772
I155
sS'249d'
p3773
I154
sS'16239G'
p3774
I166
sS'15052G'
p3775
I165
sS'3192T'
p3776
I166
sS'6989G'
p3777
I166
sS'1809C'
p3778
I165
sS'6938T'
p3779
I165
sS'15031T'
p3780
I166
sS'9716C'
p3781
I164
sS'4232C'
p3782
I162
sS'3866C'
p3783
I165
sS'13500C'
p3784
I158
sS'8485A'
p3785
I163
sS'12401T'
p3786
I165
sS'8152A'
p3787
I162
sS'7364G'
p3788
I163
sS'8697A'
p3789
I165
sS'498d'
p3790
I165
sS'11809C'
p3791
I164
sS'12880C'
p3792
I165
sS'11947G'
p3793
I166
sS'14512C'
p3794
I166
sS'7325G'
p3795
I165
sS'6524C'
p3796
I165
sS'15014C'
p3797
I166
sS'4388G'
p3798
I166
sS'9801A'
p3799
I165
sS'1700C'
p3800
I164
sS'16250T'
p3801
I165
sS'267C'
p3802
I166
sS'14793G'
p3803
I163
sS'16213A'
p3804
I155
sS'11722C'
p3805
I166
sS'16176T'
p3806
I155
sS'11890G'
p3807
I166
sS'493G'
p3808
I166
sS'8404C'
p3809
I164
sS'13803G'
p3810
I166
sS'14203G'
p3811
I164
sS'16264T'
p3812
I161
sS'16328A'
p3813
I166
sS'9887C'
p3814
I166
sS'508G'
p3815
I164
sS'15263T'
p3816
I165
sS'8562T'
p3817
I166
sS'4394T'
p3818
I165
sS'6345C'
p3819
I166
sS'8380C'
p3820
I166
sS'629C'
p3821
I163
sS'2159C'
p3822
I165
sS'13789C'
p3823
I165
sS'6254G'
p3824
I166
sS'7025G'
p3825
I166
sS'12811C'
p3826
I164
sS'7472T'
p3827
I166
sS'517G'
p3828
I165
sS'4099T'
p3829
I166
sS'5984G'
p3830
I164
sS'4790G'
p3831
I165
sS'13992T'
p3832
I166
sS'271G'
p3833
I166
sS'186A'
p3834
I165
sS'4911G'
p3835
I166
sS'14040A'
p3836
I161
sS'5301G'
p3837
I164
sS'13573A'
p3838
I166
sS'207A'
p3839
I134
sS'10245C'
p3840
I164
sS'15236G'
p3841
I157
sS'14142G'
p3842
I166
sS'9759T'
p3843
I166
sS'16266A'
p3844
I164
sS'15381T'
p3845
I166
sS'480C'
p3846
I165
sS'5704T'
p3847
I166
sS'8413G'
p3848
I165
sS'3350C'
p3849
I166
sS'1686G'
p3850
I166
sS'14142T'
p3851
I166
sS'3840G'
p3852
I166
sS'7007T'
p3853
I166
sS'2863C'
p3854
I166
sS'16248T'
p3855
I158
sS'9861C'
p3856
I164
sS'5249C'
p3857
I166
sS'15338T'
p3858
I166
sS'5514G'
p3859
I166
sS'5746A'
p3860
I164
sS'14344G'
p3861
I165
sS'6074T'
p3862
I166
sS'6293C'
p3863
I160
sS'247A'
p3864
I164
sS'12084T'
p3865
I166
sS'8555C'
p3866
I166
sS'12153T'
p3867
I164
sS'5918C'
p3868
I164
sS'72G'
p3869
I165
sS'15894A'
p3870
I166
sS'57G'
p3871
I166
sS'6764A'
p3872
I166
sS'3714G'
p3873
I165
sS'5846T'
p3874
I166
sS'6836T'
p3875
I166
sS'15746G'
p3876
I164
sS'6227C'
p3877
I165
sS'14314G'
p3878
I166
sS'11092G'
p3879
I166
sS'2857C'
p3880
I166
sS'13687T'
p3881
I166
sS'6713T'
p3882
I164
sS'15664T'
p3883
I165
sS'14944T'
p3884
I165
sS'11527T'
p3885
I166
sS'10954T'
p3886
I166
sS'11674T'
p3887
I165
sS'13885A'
p3888
I166
sS'11503T'
p3889
I166
sS'8396G'
p3890
I166
sS'56T'
p3891
I166
sS'7867T'
p3892
I165
sS'10801A'
p3893
I165
sS'3384G'
p3894
I166
sS'8668C'
p3895
I165
sS'15022T'
p3896
I165
sS'8962G'
p3897
I166
sS'12237T'
p3898
I166
sS'5250C'
p3899
I163
sS'337d'
p3900
I166
sS'10786C'
p3901
I166
sS'3342T'
p3902
I166
sS'6896C'
p3903
I165
sS'16335G'
p3904
I161
sS'198T'
p3905
I151
sS'7793T'
p3906
I166
sS'7681T'
p3907
I166
sS'13477A'
p3908
I166
sS'8348G'
p3909
I165
sS'7049G'
p3910
I166
sS'8459G'
p3911
I165
sS'16360T'
p3912
I161
sS'4102T'
p3913
I166
sS'4808T'
p3914
I166
sS'321C'
p3915
I166
sS'14550C'
p3916
I166
sS'16488T'
p3917
I166
sS'14278C'
p3918
I166
sS'4931T'
p3919
I166
sS'15889C'
p3920
I166
sS'5960T'
p3921
I166
sS'533G'
p3922
I163
sS'6267A'
p3923
I162
sS'13351T'
p3924
I166
sS'13392C'
p3925
I166
sS'5826C'
p3926
I166
sS'827G'
p3927
I161
sS'6218G'
p3928
I166
sS'16146G'
p3929
I164
sS'11296T'
p3930
I165
sS'60.1T'
p3931
I165
sS'1438G'
p3932
I166
sS'2263A'
p3933
I166
sS'16111T'
p3934
I144
sS'15944d'
p3935
I163
sS'3921T'
p3936
I166
sS'15650A'
p3937
I166
sS'4775G'
p3938
I163
sS'3834A'
p3939
I159
sS'1656d'
p3940
I166
sS'9127G'
p3941
I165
sS'9620T'
p3942
I165
sS'15113G'
p3943
I166
sS'3921A'
p3944
I166
sS'12727C'
p3945
I166
sS'8119C'
p3946
I166
sS'654C'
p3947
I166
sS'42.1G'
p3948
I166
sS'16111A'
p3949
I165
sS'11062T'
p3950
I166
sS'15095G'
p3951
I166
sS'3576T'
p3952
I166
sS'8781A'
p3953
I166
sS'16041G'
p3954
I166
sS'10724C'
p3955
I164
sS'4062C'
p3956
I165
sS'16360T!'
p3957
I165
sS'11144T'
p3958
I166
sS'1382C'
p3959
I166
sS'6791G'
p3960
I165
sS'11013T'
p3961
I166
sS'4735A'
p3962
I166
sS'11969A'
p3963
I163
sS'12627G'
p3964
I166
sS'9278T'
p3965
I165
sS'8928C'
p3966
I166
sS'15592G'
p3967
I166
sS'14533A'
p3968
I166
sS'13184C'
p3969
I166
sS'8309T'
p3970
I166
sS'9365T'
p3971
I165
sS'10084C'
p3972
I158
sS'9130T'
p3973
I166
sS'10343T'
p3974
I166
sS'13893G'
p3975
I166
sS'3096C'
p3976
I166
sS'256T'
p3977
I166
sS'6773T'
p3978
I166
sS'9165C'
p3979
I165
sS'15970C'
p3980
I165
sS'14022G'
p3981
I166
sS'14356T'
p3982
I165
sS'9531G'
p3983
I166
sS'16160G'
p3984
I166
sS'14488C'
p3985
I163
sS'7609C'
p3986
I166
sS'552A'
p3987
I166
sS'2762A'
p3988
I166
sS'3750T'
p3989
I166
sS'16223T!'
p3990
I147
sS'9755A'
p3991
I160
sS'16070G'
p3992
I166
sS'12661T'
p3993
I166
sS'8975C'
p3994
I166
sS'12362T'
p3995
I165
sS'8311C'
p3996
I166
sS'7870C'
p3997
I164
sS'8619T'
p3998
I166
sS'9178A'
p3999
I166
sS'14440G'
p4000
I166
sS'3516A'
p4001
I166
s.